(dp1
S'wage gap'
p2
(lp3
S'It is worth noting nobody can prove any of the gap is due to  discrimination and young women now earn more than young men (and are  more educated). If there is a discrimination gap nobody can prove it  exists and it must be small.'
p4
asS'emotion'
p5
(lp6
S"But it's interesting to me that you're so angry. This is a simple discussion but you're reacting emotionally instead of actually debating. Sarcasm and rhetoric aren't really that useful for coming to a common ground."
p7
asS'mexican'
p8
(lp9
S"I didn't realize that Mexicans had the internet yet."
p10
aS"Uh... if 100% of the Mexican kids in the town were stupid, it's not racist, just observant."
p11
asS'social science'
p12
(lp13
S'Quite frankly,in any argument I dismiss any mentioned statistical study based on the social sciences... Because not even 1% of them are reliable.'
p14
asS'money'
p15
(lp16
S"Times like this I wish I wasn't a woman, but then some bitch would steal all my money."
p17
aS"In socialism, you vote with other people's money."
p18
aS"Don't waste your money on a hooker...it's a lot cheaper to buy rufies"
p19
aS'Money is all that matters. I hate women like you.'
p20
aS'Child support is a good money maker for the Femmocracy. We truly live in a police state (if you are male).'
p21
asS'butt'
p22
(lp23
S'butt'
p24
aS'I like big butts and I cannot lie, but is there some evolutionary reason as to why?'
p25
aS'butts'
p26
aS'buttz'
p27
asS'sperm'
p28
(lp29
S'Until family courts stop treating fathers like cash cows and disposable sperm donors, I will be guarding my seed with my life.'
p30
asS'pussy cartel'
p31
(lp32
S'Crusaders against prostitution do not care about the safety of women. They only care about maintaining the pussy cartel.'
p33
asS'sexism'
p34
(lp35
S"There wouldn't be so much sexism and misogyny if women stopped calling everyone sexists and misogynists."
p36
asS'jailbait'
p37
(lp38
S'There is nothing on there that can classify as pornography, and these females are distributing their own pictures willingly. They can reveal as much as they like, minus nudity. There are some very promiscuous pictures, and some that are rather conservative, and simply beautiful.'
p39
aS"/r/jailbait was removed because of the PC media making filthy accusations of 'child porn', even though only child erotica was present."
p40
aS'Anderson Cooper won.'
p41
asS'antisemitism'
p42
(lp43
S'antisemitism is just a word for desperate israelis'
p44
asS'children'
p45
(lp46
S"There's nothing wrong with kicking your kid's ass every once in a while. I'm not talking about border line child abuse but a spanking when they are acting like little twats is ok in my book."
p47
aS"i was spanked frequently, and i turned out fuckin' awesome. kids are like dogs; sometimes you have to reenforce the lesson."
p48
asS'islam'
p49
(lp50
S"Well I'm of the opinion that some things are inherently bad and Islam is one of them"
p51
aS'islam in itself is a plague to humanity'
p52
asS'police'
p53
(lp54
S"grew up as a white kid in typical middle class suburbia. I don't trust them, they have been trained to be jack booted thugs, everyone is the enemy. Everyone"
p55
asS'masculism'
p56
(lp57
S'I believe reactionary masculism is a result of a pendantic debate when feminism decided not to rename itself to egalitarianism.'
p58
asS'feminist'
p59
(lp60
S'feminists want the upsides of equality (like voting and income) but not the downsides of equality (like getting drafted or getting into bar fights)'
p61
aS'To say that feminists should just be ignored is a bit like saying that Islamists should just be ignored (tbh Islamism is probably far worse than feminism, but the difference is one of degree).'
p62
aS"Feminism is just as violent as Islam, it's just that Feminism uses the state to do it's dirty work so people can't blame it on Feminism directly."
p63
aS"I know one feminist, and a week ago, she told me to get something for her and I told her I was busy. She then grabbed me by my shirt and yelled at me for being a pig. She says that's how men deserve to be talked to. Her friends congratulated her. Radical anything is a bit too crazy."
p64
aS'I am all for equal rights, but the dealing with self righteous overly feministic women I find it more funny to abandon logic and just try to piss them of the most.'
p65
aS'I have actually seen some feminists argue that paternity testing should be illegal as it would hinder women from choosing which men who are used to breed and which men who are deceived to raise.'
p66
aS'To get anything done with feminists, you have to appeal to their greed and selfishness.'
p67
aS"Feminists are insane and that's just life, but the UK is fast becoming THE Feminist State, hence an Insane Feminist Theocracy venerating women and sacrificing men."
p68
aS'oh so fighting against the feminist control of the commercial media automatically makes you paranoid? where are all the feminists campaigning against this shit if they really stand for equality? feminists only care about themselves and they think men are the enemy. this thread is proof. you are blind not to see it buddy'
p69
asS'feminazi'
p70
(lp71
S"Feminazi is pointless. Just say feminist. Even the 'good' feminists allow the 'bad' feminists free reign to do misandrist things."
p72
asS'dick'
p73
(lp74
sS'black'
p75
(lp76
S'Im so TIRED of black people getting away with offensive terms. They insult of every race, but cant get insulted themselves? That is a double standard. Also EVERY loving COUNTRY HAS HAD SLAVERY, STOP BITCHING ABOUT YOUR HISTORY.'
p77
aS"I'd never discriminate anyone based on what their race is, I would however discriminate against anyone who tried to rob me. Wouldn't you? Or would you happily get robbed by inner city black kids? Maybe you'd avoid the neighborhood too after being robbed? Does that make you racist, or prudent?"
p78
aS'in America, its socially acceptable for black people to make racist remarks in regards to any race.'
p79
aS"Yep, that's Haiti for you . . receives billions of dollars in aid a year from white governments but ya, u got it, white man's fault. Save your black power fascism for someone who gives a shit?"
p80
aS'yes i absolutely believe that crime rates in large black communities are significantly higher'
p81
aS'I asked my black friend to translate it because she comes from the ghetto and i guess is good at translating retard.'
p82
aS'loud black girls seem to always think they can do and say whatever they want and never get touched'
p83
aS'Maybe if youre walking to your car at night and 3 black people are approaching, you get your gun ready b/c statistically, you are more likely to be attacked by black people than non blacks. Not being racist, just trying to say the truth that people are afraid to say.'
p84
aS'I\xe2\x80\x99m culturist. Black American culture sickens me, as it appears to be centered around violence, shirking education and objectifying women.'
p85
aS'Not trying to be racist (Seriously), but why do black people feel it is acceptable to be extremely loud and rude in a movie theater?'
p86
aS"Can't agree more. I'm never offended when somebody calls me 'white'. Why the fuck would I be careful when saying 'black'. Fuck that, I love black girls."
p87
aS'All fat black girls travel around in a pack and are 5x louder than everyone else.'
p88
aS"I'm black, but I can almost sympathize with white supremacists when I can't enjoy my meal in a restaurant because Shanquishanaynay just haaaaad to scream at the top of her lungs to Jakhasianondreisha about how Quashrankquia's baby daddy went to jail for smoking weed."
p89
aS"I'm black, but I can almost sympathize with white supremacists."
p90
aS"Black people don't know how to use the internet."
p91
aS"Everyone's so scared of being racist that we think it's offensive to call black people black."
p92
aS'I have no problem with black people, but black culture in the United States is rude, violent, sexist and causing black people 10x more problems then their skin color.'
p93
aS"whatever, I'm sick of the entitled attitude black people have, not just in the US, all over the world"
p94
asS'rich'
p95
(lp96
S'Find a rich man. Rape him/impregnate yourself with his semen. Sue him for child support. Profit.'
p97
asS'consent'
p98
(lp99
S"Sometimes I wonder if 'consent' is an overrated concept."
p100
asS'blackface'
p101
(lp102
S'The Big Bang Theory is the nerd equivalent of blackface'
p103
aS'I still laugh at people who are easily offended by something made 70 years ago'
p104
asS'patriarchy'
p105
(lp106
S"I have to say that it is interesting how feminists decry the 'patriarchy' when women vote to expand government more than men do..."
p107
asS'violentacrez'
p108
(lp109
S'VA is interesting. I find him fascinating and a wonderful character on reddit in the way I find A Clockwork Orange to be an amazing and repulsive film/book.'
p110
aS"VA has changed me and a lot of us in how we perceive people, sexual 'disorders' and fetishes, and general acceptance and tolerance. I know this isn't enough to 'excuse' what he's 'done' for some people, but on the all I think the scales weigh heavily in his favor as a contributor to reddit."
p111
asS'feminism'
p112
(lp113
S'Feminism, at best, focuses on relatively trivial female issues instead of grotesque male issues and at worst is pure man hate.'
p114
aS"It is because feminism tears up women's side of the contract and chivalry is not manners, it is a contract."
p115
aS"feminism can't survive without chivalry. chivalry IS however, incompatible with equal rights."
p116
aS"Feminism is about ensuring  women aren't treated as less than equal.  Ensuring their advantaged  over men doesn't contradict the ideology.  The 'feminism helps men too' thing is just marketing.  I have never  seen nor heard of any feminist based effort to resolve a male issue."
p117
aS'I have no problem with equality, but much of the feminist movement has become blatantly over-run with anti-male psycho bitches.'
p118
aS"I just don't think we can count on women. They have drunk fully of the man-hating poison and their selfishness and emotionalism is ruling their decisions. Women have a genetic imperative to feel special, get resources, and get access to alpha male penises. All three needs are fulfilled by Feminism"
p119
aS"I argue that feminist political correctness is repressive to sexuality. You can't do or say anything provocative or sexual without the possibility of inflicting some form of grievous personal offense."
p120
aS"It doesn't help that 'gender studies' is effectively a hate movement against men, and that discrimination and hatred of men is the only acceptable and celebrated bigotry left."
p121
aS"And frankly, most feminist writers all through history were so fucking privileged they didn't know how to bake a loaf of bread"
p122
aS'Feminism - removing women from their pampered place in society and shoving them into the workforce. I am all for it.'
p123
asS'Ron Paul'
p124
(lp125
S"Look, we all know that you hate and fear Ron Paul because as President  he could prevent your Filipino wife from grabbing that sweet affirmative  action government job you've been counting on."
p126
asS'woman'
p127
(lp128
S"Times like this I wish I wasn't a woman, but then some bitch would steal all my money."
p129
aS'If a woman is dressed like a slut, my question is, how can she not expect him to act when these urges are directly created by her willful visual stimulation?'
p130
aS"If she didn't want to be called a whore or slut then she shouldn't have become one."
p131
asS'pc police'
p132
(lp133
S"And this is what I mean when I say political correctness is the enemy of men's rights. Expect further censorship and shaming from the PC police in the future (as we've seen plenty of here in the last few weeks, even from some of our own members)."
p134
asS'begging'
p135
(lp136
S'I tried to give food to some beggar one time, he just looked at me with assassin eyes and threw the food away.  Fuck that shit, never giving anyone anything again.'
p137
asS'school'
p138
(lp139
S"the school system is set up to privilege girls and suppress boys' natural instincts. almost all teachers are now female with the exception of some areas where they have been unable to find sufficient women teachers e.g. advanced mathematics/science."
p140
aS'Chivalry is Dead and womyn killed it. I am not responsible for their safety. I start school soon, and if I see a womyn being attacked (unlikely)I will keep right on walking.'
p141
aS'there was once a girl in highschool who faked getting raped in the bathroom for attention because she was a scabby titted birdnest haired bugeyed loser'
p142
aS"that's what i love about these highschool girls. i keep getting older, but they stay the same age."
p143
asS'fat'
p144
(lp145
S"Fat people aren't people. There, I said it."
p146
aS"get a fat or ugly person, put peanut butter under their tongue and while they try to lick it off, they're voiced over."
p147
aS'People are fat because they are just okay with sitting on their asses playing on the internet looking at Lolcats instead of getting on a treadmill.'
p148
aS'If sex is great exercise, then why are there still fat sluts?'
p149
aS'There are no fat, ugly Studs. There are fat, ugly Sluts.'
p150
aS"I hate to say this, but that may be because she's a better choice for reproduction from an evolutionary perspective. We're just apes lady. Metabolic freakiness is a really handy trait to pass on to the ol' progeny."
p151
aS"People don't get fat because they're depressed, even if they get depressed because they're fat. They get fat because they won't stop fucking eating."
p152
aS"If a woman is fat but loves the way she looks and is proud of her appearance, well, she's still fat. If a woman is pretty but thinks she's ugly, well, she's still pretty."
p153
aS"As a woman, you feel that you should be worshipped for possessing a vagina. but seeing you're so lazy and greedy, you became fat and hideous. therefore no desirable men actually want to go near your rancid pussy."
p154
aS'While I believe human beings are born equal, I believe some cultures to be inherently better than others.'
p155
aS"I'm tired of stores no longer carrying anything in size Small. Also, my small tshirt should cost less than the XXL version of the same shirt."
p156
aS'Fat people and smokers need to pay higher health insurance premiums. Put a price tag on it and obesity rate will go down from the alarming 30%.'
p157
aS'All fat black girls travel around in a pack and are 5x louder than everyone else.'
p158
aS'#We should not be making it easier to be hugely overweight.'
p159
asS'eugenics'
p160
(lp161
S'There should be a skill-testing question to breed.'
p162
aS'If there ever was a validation for eugenics and the Idiocracy that America is turning into, Michelle Bachmann is it.'
p163
aS'If your heart breaks with every orphan, support eugenics and sterilization'
p164
aS"Smart people are just as capable of manual labour, if not moreso, because it'll be easier for them to figure out how to improve the process."
p165
aS'He would be better off campaigning with the rest of us to reinstate positive eugenics along with IQ and literacy testing as a prerequisite for citizenship and civil rights privileges.'
p166
aS'You know this is a horrible thing to say, but someone needs to say it. Everyone should be fixed, vasectomy or tubal. Only when you earn enough to have it reversed should you be allowed to reproduce.'
p167
asS'Affirmative Action'
p168
(lp169
S'It has become standard in America that if you do not have enough black people succeeding it is YOUR fault. Not theirs, even for things that are completely race independant like graduating from college.'
p170
asS'blowjob'
p171
(lp172
S'They probably charge $2,000 for a blowjob though.'
p173
asS'masturbate'
p174
(lp175
S"It's unsanitary to masturbate with vegetables."
p176
asS'haiti'
p177
(lp178
S"Yep, that's Haiti for you . . receives billions of dollars in aid a year from white governments but ya, u got it, white man's fault. Save your black power fascism for someone who gives a shit?"
p179
asS'evolution'
p180
(lp181
S'Congrats for being a great example on how through evolution some members of species die out while others thrive. Real shame for your kids though.'
p182
aS"You don't have to be attracted to a wet hole to deposit your semen. Evolution didn't need for a vagina to be attractive."
p183
aS'I like big butts and I cannot lie, but is there some evolutionary reason as to why?'
p184
asS'white people'
p185
(lp186
S'You know, this white people as the privileged class joke is pretty old.'
p187
asS'gender'
p188
(lp189
S'Stop being your gender/sexuality/race/etc and start being a person.'
p190
asS'gun'
p191
(lp192
S'honestly, anymore I could give a fuck if someone pulled out a gun and blew one of these fuckers heads off.'
p193
aS'Maybe if youre walking to your car at night and 3 black people are approaching, you get your gun ready b/c statistically, you are more likely to be attacked by black people than non blacks. Not being racist, just trying to say the truth that people are afraid to say.'
p194
asS'race'
p195
(lp196
S'Profiling works, and proper profiling includes race.'
p197
aS'Discrimination based on race = unfunny  Jokes based on racial discrimination = funny'
p198
aS'i never said anything about melatonin, because race is obviously comprised of more than that'
p199
asS'evopsych'
p200
(lp201
S'I think perfect punctuation makes sense from an evolutionary standpoint - it gives the impression of intelligence.'
p202
aS"Looks like most of the girls are postpubescent, and men are biologically hardwired to find the traits of physical maturity desirable. Just because society stigmatizes relations with them doesn't mean men are going to defy millions if years of evolutionary instincts."
p203
aS"If one woman is having sex with all the men, she's monopolizing the gene pool -- she's decreasing the chance of other women having sex with fit men. And these other women want a shot too. So women themselves have evolved to dislike other women having sex with lots of men."
p204
aS"When a sexually promiscuous female has offspring, the male can't be sure that the offspring is his. As a result, males try to distance themselves from sluts in public so that they don't risk having to raise another male's child."
p205
aS'Women are pre-programmed to be more selective on who they mate with so that their offspring has a better chance to survive, while Men are pre-programmed to fuck anything with a heartbeat and a hole.'
p206
aS"Most slut shamers are women. They're offering up what they hope is a rare commodity: Sex. In exchange for sex they hope to get lots of things from men. A relationship, stuff, whatever. Sluts, however, just give it away for the fun of it. It's not a tool to them, it's just something fun to do with someone else."
p207
aS'If you want to talk about evolution, a true pedophile is more probable to take care, spend time and protect children than a non-pedophile.'
p208
aS'basically when you are in a relationship you give off subtle signals or pheromones so that girls can pick up on subconsciously and they are attracted to you more. Something with primeval need to find a partner that will protect and take care of them and since they know that you are with someone you now appear to be more acceptable to fit that protection/survival need then when you are single and have no one.'
p209
aS"Women - all women - have no choice but to feel attracted to muscular guys. It's a basic fucking deduction you can make after spending 2 seconds thinking about evolution."
p210
aS"If we consider that the rape WILL happen, then girls could lower their value to the rapist by dressing down a bit. Survival of the fittest, selfish human nature, whatever. Someone else will get raped, and ultimately that is in this person's best interest."
p211
aS'I like big butts and I cannot lie, but is there some evolutionary reason as to why?'
p212
asS'slut shaming'
p213
(lp214
S' In this society there is almost no legal ramification for breaking a commitment that you made to somebody.    If she decided to ignore a monogamous relationship, fuck someone else  and expose her faithful partner to STDs, (not to mention emotional  abuse) then she deserves public shaming.'
p215
asS'old'
p216
(lp217
S'When you hit a certain age, you should have to retake the driving test. Old people are awful drivers.'
p218
aS'Old enough for the fire-house pole old enough for my meat pole.'
p219
aS"Most women don't progress past a mental age of 12 years old"
p220
aS"that's what i love about these highschool girls. i keep getting older, but they stay the same age."
p221
asS'jews'
p222
(lp223
S"It's not simply 'I dislike Jews for being Jewish'. I dislike their policies. They are bad for the US."
p224
aS'b/c jews run america'
p225
aS'antisemitism is just a word for desperate israelis'
p226
asS'stereotype'
p227
(lp228
S"Wait. You're actually telling me you think there is a stereotype that  only white and asian kids go to college? I don't even know what to say  to this. My school has more blacks than asians."
p229
asS'porn'
p230
(lp231
S"For years people tried to make the claim that those who listened to death metal music or played violent video games would go out and kill people. I think we've discovered that that isn't true. It's the same type of connection here: that if one looks at child porn then they must molest kids."
p232
asS'welfare'
p233
(lp234
S"If people, whether they be white, black, hispanic, or any other race are unwilling to work then I'm sorry bud, that's not my problem. IMO there are a few reasons why people who are on welfare don't get jobs. They don't want to. It's too easy to just take the check. The are unpresentable. Tattoos, clothes, piercings, language"
p235
aS"I realize that it is possible to be on welfare and not be cheating the system, but I've yet to hear or see a concrete example of this."
p236
aS"it's simple. If you want to vote, then you have to get off welfare. It's supposed to be a safety net, not a hammock. But as long as politicians can court the vote by giving away other people's money, there will be people willing to take it. If giving away bread and circuses doesn't get you votes, then it would stop."
p237
asS'age of consent'
p238
(lp239
S"Puberty is nature's age of consent."
p240
asS'sex'
p241
(lp242
S"You can have class, or you can have sex, you can't have both... at least not if the sex is done right."
p243
aS"Roses are red, violets are blue. We're having sex cuz I'm stronger than you."
p244
aS"Does it matter if animals can't consent to sex with humans?"
p245
aS'In exchange for sex women hope to get lots of things from men.'
p246
aS'If sex is great exercise, then why are there still fat sluts?'
p247
aS"Women's control over sex is one of the many ways in which men are discriminated against in society at large."
p248
aS"Why is the idea that women are giving something to men when they have sex so widespread? Why is it almost always men who propose, men who pay for drinks and dates, men who approach etc? You know it as well as I do that women control sex. I don't understand why you are debating the point."
p249
aS"to all of you putting the Onus on men as though its their shyness that's the problem. Remember Women control the access and make the decisions and on average are actually having sex more often than the population of males."
p250
aS'Withholding sex is borderline abusive.'
p251
aS"When a dude tells a story about the time he got laid, it's a predatory  affair. When a woman tells it, she's choosing the best tomato from a  bucket. There's no doubt she's going to get laid, it's just who she  chooses."
p252
asS'culture'
p253
(lp254
S'While I believe human beings are born equal, I believe some cultures to be inherently better than others.'
p255
aS'Some cultures are objectively worse than others.'
p256
asS'college'
p257
(lp258
S'Communications is a major for slutty college broads who want to party. Not to stereotype or anything...'
p259
aS"Most girls will be delighted to talk to a guy who has the balls to start a conversation with a cutie. If they aren't delighted, it's no fault of yours. They are 'weird' and not worth your time anyways. Most of the 'game' I run is actually on a college campus that I'm not a student at."
p260
aS'Swedish college girls now twice as slutty as in 2001'
p261
aS"I still look down on everyone that doesn't have a college degree. I try not to, but I still do."
p262
asS'hoes'
p263
(lp264
S'Women are bitches and hoes, coming from a female.'
p265
asS'girl'
p266
(lp267
S"It's easy to tell a girl you are rich. Just wear branded stuff all the time. They see your brand before they even see your face."
p268
aS'Also, you are a girl. Can I see your boobs? :)'
p269
aS' Go to dinner, chew with you mouth closed, laugh at all her jokes.'
p270
aS"You obviously aren't facebook friends with a hot girl just to look at her pictures. People may find this creepy, but everyone knows they do it."
p271
aS'A girl who smokes is a guaranteed swallower.'
p272
aS'just wait. date a girl for an extended period of time and choking/slapping the whore/bitch will become as natural as taking a dump'
p273
aS'My opinion? Never rape a girl like that: she would brag to everyone.'
p274
aS'Just joking girl, enjoy your body while it still gets you a free self-esteem boost!'
p275
aS"Why do girls think that getting a guy's number is such an achievement? Go up to any guy ever and ask for his number. Seriously. Tomorrow. Just try it. Double dare you."
p276
aS'What does an attractive 19 year old girl need to make 20 grand a month? Oh right, she just needs to get naked. IS THERE NO JUSTICE IN THE WORLD?'
p277
aS"lets say I see a cute girl and wanna talk to her; how can I tell if she's on her period?"
p278
aS"i would enjoy seeing the girl i'm about to get paid to bang cry because of what she's doing"
p279
aS'there was once a girl in highschool who faked getting raped in the bathroom for attention because she was a scabby titted birdnest haired bugeyed loser'
p280
aS'Find a girl who wants nothing to do with you. That night, furiously masterbate thinking of her. The next day, tell her.'
p281
asS'african american'
p282
(lp283
S'I have a fantasy where I am a white person who emigrated from south africa to america and I demand people refer to me as african american'
p284
asS'creep'
p285
(lp286
S"Creep shaming is probably one of the most insidious and anti-equality things you can do. The ability to label men as 'creepy' is just one privilege that women enjoy."
p287
aS"Just like it's not acceptable to label a woman a slut because you don't like what she's wearing, it's not acceptable to label a man a creep because he exercised free speech in a nonthreatening way."
p288
aS'What makes him creepy? The fact that he is a man? Or the fact that maybe, just maybe, our society is so bigoted against men that their very presence in a female dominated area is viewed with suspicion?'
p289
aS'You realize girls like attention from creepy guys, right?'
p290
asS'canada'
p291
(lp292
S'racism is alive and well in Canada, and the victims are Caucasians. Aboriginals sure love their double standards and free things'
p293
asS'ephebophile'
p294
(lp295
S'I said that I would watch 14-year-olds fuck and the moral majority took me by storm. Maybe instead of blindly downvoting ideas that our society finds disgusting, you could explain to me in what way I was not adding to this discussion.'
p296
aS"Wait until you get more facts, then. If he had videos of 17-year-old girls then stand by him and don't let his friendship go. If it was 10-year-olds, then you should probably be stern with him about that kind of stuff."
p297
asS'religion'
p298
(lp299
S'Religion is nothing but bullshit.'
p300
aS'Pretty much all religion are plaques to humanity.'
p301
asS'market'
p302
(lp303
S"The USA, 1 year into Ron Paul's presidency, will have universal health care due to 'free market' forces."
p304
asS'internet'
p305
(lp306
S"ALL GIRLS ON THE INTERNET ARE FATASSES WITH AN ADAM'S APPLE"
p307
aS'Tell Professor Loser McQueerface that the internet says he can suck it.'
p308
aS'Dear women, if you cheat on us while we are deployed, and get pregnant, we will send your picture to as many of our friends as possible, and post in on the internet.'
p309
aS"I'm tired of the internet making me feel worthless just because I was born with a dick and not a vagina, it's even making me misogynistic."
p310
aS"Black people don't know how to use the internet."
p311
aS"I didn't realize that Mexicans had the internet yet."
p312
aS'You own a vagina, with all the associated privileges and benefits that go along with it, and trolling an internet forum is all you can do?'
p313
aS'Seriously, is everyone here new to the internet or something?'
p314
aS'I have to be proper and nice all day long at work and there are consequences for being a dick in real life. I need an outlet somewhere and the internet is a perfect place.'
p315
aS"I don't know. Call me immature, but I don't think I'm ever going to get bored of being a dick anonymously. If you're going to go out on a limb and post pictures of yourself on the internet, you're free game. You don't have to put pictures online. It's your choice. And if you are fat or stupid looking, I'm going to call you out for my own enjoyment."
p316
asS'marriage'
p317
(lp318
S'Marriage has become all about HER. HER fairytale wedding. HER emotional needs. HER money (his salary.) HER kids, which she is guaranteed custody of. HER phat divorce settlement. Hey ladies, it\xef\xbb\xbf takes two to tango and men have left the dance floor.'
p319
aS"Marriage is ALL about money; it's a money grab. Don't do it (unless you live in China). You will lose."
p320
aS"The most widely used welfare program in the 'western' world is ball-and-chaining men to women through marriage and divorce. We've even instituted wage garnishment, forced labor, and imprisonment for men who refuse to pay their ex-wife's way through life. It's nothing short of legalized slavery."
p321
aS" 'Marital rape' is primarily a false tactic used by women to easily send their husbands to prison, gain custody of their children, or an excuse for when they murder them in cold blood. Furthermore, marriage is a contract where a woman receives money and a man receives sex."
p322
aS"You're a woman. There's no risks for you in a marriage."
p323
aS'Men face social barriers to having children. Reason 1: being unable to find a woman willing to commit to being a woman for a lifetime marriage.'
p324
aS"Marriage doesn't really serve a purpose anymore in Western society, especially America and its Draconian divorce/custody laws that are nakedly in favor of women, heart and soul."
p325
aS'Modern legal marriage is nothing more than a welfare program for women at the expense of men. Anyone who cares to study the issue for even just one day will see this truth.'
p326
aS'anything that has a vagina is marriage material'
p327
asS'misandry'
p328
(lp329
S'misandry apparently dont real'
p330
asS'discrimination'
p331
(lp332
S"the CRA does force participation  by, for example, making  discriminatory hiring illegal. Now blacks either have a place in your  life or your breaking the law. That's forcing participation."
p333
aS"I would add also that refusal to hire blacks only excommunicates them  from the community if it's across the board and even then living in  their own relatively separate, but proximate, community can lead to it's  own integration."
p334
asS'reddit'
p335
(lp336
S"If I was standing next to an Ethiopian, I more than likely wouldn't make  any starvation jokes. But on Reddit, of all places, I'll make jokes  about what I want."
p337
aS"I personally think Reddit would be better overall without mods. There really is no point to them. I can't see spam making it to the top because it can just get downvoted. Mods almost always get little power trips and like to make rules."
p338
asS'profiling'
p339
(lp340
S'Profiling works, and proper profiling includes race.'
p341
asS'boobs'
p342
(lp343
S"Girls with huge boobs will never know if they're really interesting."
p344
aS'Seriously though, who the hell puts there boobs on show and gets offended when people look at them, come on.'
p345
aS'Dental Hygienists, are you aware of how happy you are making me with your boobs constantly bumping into the side of my face?'
p346
aS'Would a shopkeep put his best wares(boobs) in the window, then complain when people observe them?'
p347
aS'Talking about her boobs != disrespect her as human being.'
p348
asS'pua'
p349
(lp350
S'The PUA community is not inherently misogynistic. Misogyny is the hatred of women, and I think we can all agree that the last thing the PUA community hates, is women.'
p351
aS'I remember hanging out with one PUA who made out with a girl by only barking like a seal and NOT SAYING A SINGLE WORD'
p352
aS"Many PUA guys will entertain, neg, do kino all the right stuff, but don't close because it is not what they expect and not part of their reality that they project."
p353
aS"TIL: If you say 'neg her' really fast in a bar people will think you're a racist."
p354
aS'A neg is when one brings attention to and feigns subtle disappointment over a slight flaw of a desired female to win her attentions through psychological manipulation of her esteem and her subsequent desire for redemption.'
p355
aS"On a side note, approval shares a close link with desire. Women have evolved to subconsciously link the two as a means of quickly determining the quality of a potential mate. The more readily you give a woman your approval, the less she'll think of you."
p356
aS'your primary girlfriend - best not to lie to her, at least do not tell her you are seeing other women (no girl want to hear this), but do not tell her you two are exclusive either. Keep vague, if she asks, avoid answering. Typically she will stick around 2-3 months with you until she asks the ultimate question: me or them.'
p357
aS"Interestingly enough, the PUA community generally has more true respect for women than most men do. They're just better at sifting through the chaff and letting the detritus fall away so they can find a woman that they actually like. Maybe if you had some respect, you'd recognize that it's not a woman's fault that she likes to have sex. And so what if she does anyway, don't you enjoy it?"
p358
asS'slut'
p359
(lp360
S'basically the slutwalk is saying, i can do whatever i want, i am not responsible for my actions, the world must conform to me.'
p361
aS'If a woman is dressed like a slut, my question is, how can she not expect him to act when these urges are directly created by her willful visual stimulation?'
p362
aS'It is far, far easier for women to have sex then men. If a man has had sex with 74 women he has had to convince every single one of those women to have sex with him. If a woman has had sex with 74 men she is easily convinced.'
p363
aS"'Less gay' kids get bullied less. 'Less slutty' girls get raped less. Should they be able to act and dress however they want?"
p364
aS"If she didn't want to be called a whore or slut then she shouldn't have become one."
p365
asS'reverse bigotry'
p366
(lp367
S"if there was a male only' tournament, you wouldn't hear the end of it from the females. "
p368
aS"if there was a male only' tournament, you wouldn't hear the end of it from the females."
p369
asS'knock knock'
p370
(lp371
S"who's there"
p372
asS'french'
p373
(lp374
S'I use french to woo the girlz'
p375
asS'mangina'
p376
(lp377
S"I'm not the monster society wants me to be. So I'm neither mangina nor beast. I'm something new entirely. With my own set of rules. I'm male. Boo."
p378
aS"'mangina' describes a set of political thoughts and behaviours"
p379
asS'kitchen'
p380
(lp381
S"If Edward Cullen was a kitchen set it'd make more sense"
p382
asS'sister'
p383
(lp384
S'thats my excuse for hitting my sister lol'
p385
aS"If your little sister yells to get stuff, show her who's boss and put her in her place... controlled violence is sometimes a necessity."
p386
asS'misogyny'
p387
(lp388
S"'Misogyny' is throwing acid in the face of a woman because she dared to talk to a male outside, or torturing women, or otherwise seeking to actively hurt or invalidate women."
p389
aS'Not misogyny: Bad taste jokes about rape/abuse/etc. Logic. Counterarguments. Disagreements. Harsh language. Saying cunt. Saying bitch. Calling women names. Being pro-life. Calling every woman who accuses a man of rape a liar.'
p390
aS"There wouldn't be so much sexism and misogyny if women stopped calling everyone sexists and misogynists."
p391
asS'daughter'
p392
(lp393
S'My biggest fear of having a daughter is that I would be attracted to her.'
p394
asS'joke'
p395
(lp396
S'I have a real problem with people who try to demonize jokes of any type, probably partly because I intend to write jokes as a living'
p397
aS"If I was standing next to an Ethiopian, I more than likely wouldn't make  any starvation jokes. But on Reddit, of all places, I'll make jokes  about what I want."
p398
asS'violence'
p399
(lp400
S'I like my beer like i like my violence. Domestic.'
p401
asS'assault'
p402
(lp403
S"Honestly, being real, just getting a jab to the face isn't going to kill you, but it'll shut you up. Even if the guy gives her the left cross and puts her fucking lights out, it's not like he's kicking her head in or anything."
p404
asS'minorities'
p405
(lp406
S'The main reason certain minorities are statistically less successful is that it is looked poorly upon by others in that community to act intelligent and care about education and bettering yourself. Not because other races, popularly white people, are holding them back.'
p407
aS"If you really want to help, come down and tell them what the rest of the country really thinks of them, how they see them as leeches on society and non-contributors. If they heard it from a white guy, maybe they'd believe you."
p408
asS'gun-control'
p409
(lp410
S'the problem is if you ban handguns, you will only be banning them from law-abiding citizens. Criminals will do what criminals always do- break the law. They will then own a gun illegally. This creates the situation where the only ones with weapons are the criminals.'
p411
asS'gww'
p412
(lp413
S'words words words words words words words words words words words words words words words words words words words words words words words words words words words words words words words words words words words words words words words words words words'
p414
asS'logic'
p415
(lp416
S'Logic is not as much a part of the general female condition as it is of the general male condition.'
p417
asS'cat turds'
p418
(lp419
S" I'm surprised you can type that with your keyboard littered in cat turds."
p420
asS'friendzone'
p421
(lp422
S"You are only friend zoned if you keep being her friend after rejection, or she keeps being your friend. Say fuck that and I'd rather not talk to you at all, problemo solvedo"
p423
aS"It's not the friendzone until she reported you for rape."
p424
aS"When a woman treats you like her boyfriend except the only thing missing is sex, it's gets rough after awhile when you have feelings for her."
p425
aS"To be fair when people talk about the 'dreaded friend zone' they mean when you are in love with a girl and the girl knows and yet will use you as a boyfriend except for the romantic/sexual parts."
p426
asS'bachman'
p427
(lp428
S'If there ever was a validation for eugenics and the Idiocracy that America is turning into, Michelle Bachmann is it.'
p429
asS'humour'
p430
(lp431
S'What benefit does this have that outweighs my laughter?'
p432
aS"'human fucking decency' has nothing to do with humor"
p433
asS'drunk'
p434
(lp435
S"If a drunk chick you knew asked you to 'stay over' what would you assume she wanted? I know there's a possibility that maybe she just wanted her husband's friend to sleep on their couch but I really doubt it."
p436
aS'Friendly is not the same as wanting to fuck. Move on if she seems only friendly. Cues: not sitting very close, no touching, unresponsive to your touching, not drunk.'
p437
aS"I just don't think we can count on women. They have drunk fully of the man-hating poison and their selfishness and emotionalism is ruling their decisions. Women have a genetic imperative to feel special, get resources, and get access to alpha male penises. All three needs are fulfilled by Feminism"
p438
asS'tourettes'
p439
(lp440
S'no offense, but something about a guy with tourettes shooting a handgun is kind of funny to me'
p441
asS'pussy'
p442
(lp443
S"Pussy is the most expensive thing you'll ever eat."
p444
aS'If you own a pussy, you can get a decent man to do anything for you.'
p445
aS'if get(pussy) then fuck(pussy) else kill(pussy)'
p446
aS"I guess that's one way of looking at it, but think about it this way: If I bake a pie, and this is a really good pie, and I walk around town just holding the pie, everybody's seeing it and smelling it, getting a good look at the pie....should I get mad if someone eventually asks me if they can have a slice of pie? Eventually someone is even gonna ask,"
p447
asS'ethiopian'
p448
(lp449
S"If I was standing next to an Ethiopian, I more than likely wouldn't make  any starvation jokes. But on Reddit, of all places, I'll make jokes  about what I want."
p450
asS'intellectual'
p451
(lp452
S"It's almost impossible to find a woman with depth and true insight on intellectual issues."
p453
aS'This entire conversation has proven once again that a MAN is more intellectual, more sophisticated, and more of an all-around BETTER PERSON than you.'
p454
asS'gypsies'
p455
(lp456
S'Gypsies are criminals and live like beasts.'
p457
aS"They don't pay any taxes, yet insist on having the best healthcare, and any other benefits they want, by threatening the staff of the hospital with violence. They'll move into any bit of land or lay-by they want, and make shit of it, dumping rubbish, leaving burnt out cars etc. Basically, prime candidates for ethnic cleansing."
p458
aS'Gypsies: The one case where racism is right'
p459
asS'homeless'
p460
(lp461
S'I tried to give food to some beggar one time, he just looked at me with assassin eyes and threw the food away.  Fuck that shit, never giving anyone anything again.'
p462
aS'There are a number of beggars and homeless who are so because they conscientiously will not accept any responsibility'
p463
asS'bitch'
p464
(lp465
S"See, women think that when men say the word 'bitch' we're generalizing. We're really not. We actually are just talking about the 'BITCHES'. Not all women."
p466
aS"Don't marry a heartless, evil bitch that refuses to help with family expenses and gets her relationship advice from other heartless, evil bitches"
p467
aS'just wait. date a girl for an extended period of time and choking/slapping the whore/bitch will become as natural as taking a dump'
p468
aS'you are made of bitch'
p469
aS"Bitch won't get on my dick, FUCK DAT"
p470
aS'I give up my seat to a woman if she deserves it. But, as soon as you feel entitled to the seat I say fuck off bitch.'
p471
aS'this is the way of women, as far as I have experienced in life...Bitch until you get what you want, think of something else you want, and then bitch until you get that, in perpetuity.'
p472
aS"'Be yourself.' The argument girls have when they try to justify being a bitch."
p473
aS"She's a bitch. A shallow shallow bitch."
p474
aS"It doesn't even have to be a prostitute either. Guys always have to pay for sex one way or another."
p475
aS"Don't call women bitches. Because bitches are dogs. And dogs are loyal."
p476
asS'female'
p477
(lp478
S"Oh you're a female? Gonewild Post."
p479
aS"Female posters are considered a valued commodity, while male posters are all declared 'losers', 'creeps', 'pervs', 'nerds', 'neck-beards', 'forever alone', etc. Men seem far more welcoming and supporting to women in male dominated fields than women are to men."
p480
aS"I personally love the female body and don't like things that disrupt my view of it"
p481
aS"Female Redditors account for about 20% of the site's userbase. Unless you're talking metaphorically, in which case the number is more like 90%."
p482
aS"Knowing the female tendency for rape fantasies (read any romance paperback) I've often wondered if their constant attacks of 'all men are rapists' is projection resulting from their forbidden lusts."
p483
aS'YEs, all females, except a few cases with mental issues, are automatically bisexual.'
p484
aS'Women are bitches and hoes, coming from a female.'
p485
aS"Not attracted to your female friend? She's either ugly or you're gay."
p486
aS'Most female insecurities come from other females, not men.'
p487
aS'Logic is not as much a part of the general female condition as it is of the general male condition.'
p488
aS"But why is it that females find the need to declare their gender? You don't see males doing this to the same extent, or at all."
p489
asS'linux'
p490
(lp491
S'the whole Windows/Mac/Linux thing is just as bad as White/Black/Brown/Yellow'
p492
asS'hitler'
p493
(lp494
S'Leftists, especially among their actual jewish element, hate logical, measured discourse because in such situations, they always lose. Especially when dealing with us, because, as has often been said, there is no rational argument against White Nationalism.'
p495
asS'quit'
p496
(lp497
S'/quit'
p498
aS'/me quits'
p499
asS'jew'
p500
(lp501
S'If Ron Paul becomes President, there will be a real investigation of 911. That will mean the end of Israel, and every Jew in America will be dangling from a lamp post.'
p502
aS'That international jewry runs the world from behind the scenes, and that the west is a jewish banking empire and that NATO is merely the seargent at arms of international jewry and its global economic interests.'
p503
aS'With such a huge deficit, we need a Jewish president.'
p504
asS'illegal'
p505
(lp506
S'You know what should be illegal? Breeding without a license.'
p507
asS'girls'
p508
(lp509
S'All fat black girls travel around in a pack and are 5x louder than everyone else.'
p510
asS'racism'
p511
(lp512
S"Why is racism a bad thing? I don't see any problem with wanting to be around your own kind. Lots of black people around means more murders, rapes, assaults and robberies etc. Have fun with that."
p513
aS"You know when most of you stupid nerdy white kids on here are in your 50's, you will look back and realise how stupid you were supporting the invasion of your own lands. You will be the oppressed minority in your own country, your own ancestral land. See what you think about it then."
p514
aS'Anti-racism is actually racist'
p515
aS'Some cultures are objectively worse than others.'
p516
aS"I think we do more harm than good trying to 'combat' racism"
p517
aS"If it's accurate, it is not racism, it's sociology."
p518
aS"It's not racist unless you truly mean it you faggot. It's the thought that counts."
p519
aS'I believe the true racists are those who get offended by jokes about race. Everyone else is obviously trying to have a simple, good laugh.'
p520
aS'Racism is just a spcific kind of stereotyping. Stereotyping is a necessity in society to quickly assess threats to property or person.'
p521
aS'When you live your life without race on your mind, you have transcended all of them: racists and non-racists.'
p522
aS"You don't understand the difference between legitimate criticism and racism, therefore you can go fuck yourself."
p523
aS'black americans can be so subtly racist and exclusive as to  presuppose that they are the biggest and most important victims of  racism, almost as if they own it. Worst is they can be the biggest proponents of racism, by insisting  on labeling themselves as different.  No one defines black people as  specifically being a black'
p524
aS"I finally understand why everyone sees so much racism in the world. They  actively look for it where previously it doesn't exist. "
p525
aS"I finally understand why everyone sees so much racism in the world. They  actively look for it where previously it doesn't exist."
p526
aS'i never said anything about melatonin, because race is obviously comprised of more than that'
p527
aS"Maybe there would be less racism if popular black culture wasn't completely centered around being a complete piece of shit worthless citizen"
p528
asS'beer'
p529
(lp530
S'I like my beer like i like my violence. Domestic.'
p531
asS'racist'
p532
(lp533
S'Idle thinking here, but there was recently a study showing everyone but africans have Neanderthal DNA... wonder if the key to maintaining empires is hidden in that part of our code? Totally not racist, but the evolutionist in me is intrigued by this.'
p534
aS"I'm not a racist man, but each one of these savages and cackling bitches is only working towards more stereotypes of their race, and are just bad people to boot."
p535
aS'It may be racist, but in this city there is a dangerous demographic responsible for much of the violence.'
p536
aS"in the United States racism is only racist if it's against black people"
p537
aS'Somehow is never occurs to people that using the term white boy in a derogatory sense might be racist.'
p538
aS"Everyone's Racist"
p539
aS"I'm Not Racist But..."
p540
aS'I\xe2\x80\x99m culturist. Black American culture sickens me, as it appears to be centered around violence, shirking education and objectifying women.'
p541
aS'Not trying to be racist (Seriously), but why do black people feel it is acceptable to be extremely loud and rude in a movie theater?'
p542
aS"...can we not throw that word around? Goddamn am I sick of the word 'racist'."
p543
aS"Everyone's so scared of being racist that we think it's offensive to call black people black."
p544
aS'I have no problem with black people, but black culture in the United States is rude, violent, sexist and causing black people 10x more problems then their skin color.'
p545
aS'Anti-racism is actually racist'
p546
aS'Some cultures are objectively worse than others.'
p547
aS"Uh... if 100% of the Mexican kids in the town were stupid, it's not racist, just observant."
p548
aS'The main reason certain minorities are statistically less successful is that it is looked poorly upon by others in that community to act intelligent and care about education and bettering yourself. Not because other races, popularly white people, are holding them back.'
p549
aS"If it's accurate, it is not racism, it's sociology."
p550
aS"I'm not being racist, I'm being realistic. Comon fucking misconception."
p551
aS"I was just pointing out to my friend how awesome it is that there's so much white guilt going around that any time a non-minority points out a bullshit thing that minorities are doing they're considered racists."
p552
aS'The charges of being condescending or racist are not relevant to the validity of an argument.'
p553
aS"i am a racist, but it's because I'm well informed "
p554
asS'privilege'
p555
(lp556
S'You know, this white people as the privileged class joke is pretty old.'
p557
aS'Open your eyes and see that the most privileged people on this earth are white female Americans.'
p558
asS'music'
p559
(lp560
S"As far as I'm concerned there are two great musical storytellers in American history:  Bob Dylan and the Mighty Mighty Bosstones.  Nobody else even comes close."
p561
asS'white'
p562
(lp563
S'Somehow is never occurs to people that using the term white boy in a derogatory sense might be racist.'
p564
asS'african americans'
p565
(lp566
S'black americans can be so subtly racist and exclusive as to  presuppose that they are the biggest and most important victims of  racism, almost as if they own it.    Worst is they can be the biggest proponents of racism, by insisting  on labeling themselves as different.  No one defines black people as  specifically being a black'
p567
aS"virtually everything in life related to education or jobs is handed to Af-Ams for free. Now you mentioned all jobs in total, the ones that would hire convicts, but you're setting your sights a little low. Universities and large corporations are fucking handing out diplomas and jobs like candy to Af-Ams"
p568
asS'vagina'
p569
(lp570
S'Generally its taken as you can tell if a girl is sexually active with more men because of what where the smoother parts of the walls are. Since all men are difference sizes, you can tell that she been with many guys because of how unevenly smooth the walls are based on depth. tl;dr doctors can tell if a girl is a slut or not.'
p571
aS"Actually, as a guy, I find baby vaginas cute. Not in a sexual way. They look like fat rolls but between the legs. I'm sure a lot of other people think so too but are too afraid to admit."
p572
aS'We men agonize over the possession of what is basically two square inches of real estate. The vagina.'
p573
aS"I'm tired of the internet making me feel worthless just because I was born with a dick and not a vagina."
p574
aS"You don't have to be attracted to a wet hole to deposit your semen. Evolution didn't need for a vagina to be attractive."
p575
aS'You own a vagina, with all the associated privileges and benefits that go along with it, and trolling an internet forum is all you can do?'
p576
aS'Is it bad that I find the inside of a Vagina ungodly disgusting.'
p577
asS'ron paul'
p578
(lp579
S'You might not agree with Ron Paul 100%, but he is the only candidate who will bring peace and honesty to the White House.'
p580
aS'The prospect of Ron Paul for president would make me want to come over there and naturalise just so that I could vote for him.'
p581
aS"Ron Paul is amazing, in that I don't know of another politician with his absolute indomitable character. The guy is 110% honest, 110% accountable, says what he means, and lives his life being the change he wants to see."
p582
aS"The USA, 1 year into Ron Paul's presidency, will have universal health care due to 'free market' forces."
p583
aS'If Ron Paul becomes President, there will be a real investigation of 911. That will mean the end of Israel, and every Jew in America will be dangling from a lamp post.'
p584
aS"Look, we all know that you hate and fear Ron Paul because as President he could prevent your Filipino wife from grabbing that sweet affirmative action government job you've been counting on. You know, the job you said her skin color would help her to get."
p585
aS'He is NEVER WRONG PAUL. Only RIGHT PAUL!'
p586
aS'Ron Paul is just almost always right. Like when he predicted: 9/11 in the late 90s; the flaws and pains of the Iraq War in 2002, as well as the flaws in the rationale for it; the housing bubble in 2002 and its collapse in 2007.'
p587
aS'If Ron Paul where to die due to assassination, I think that it would make him a martyr for freedom.'
p588
aS'The work Ron Paul has done for liberty cannot be underestimated, he has been the lone voice of sanity in a crazed establishment for nearly 30 years.'
p589
aS"Dr.Paul is the only sensible choice. It's either him or another Keynesian, Zionist, war-hungry Fedsucker."
p590
aS"Ron Paul is the best Republican Primary, but sadly, the media in all of it's 'wisdom' doesn't acknowledge nearly as much as any other candidate running. Sadly, the media is very bias."
p591
aS'Calling Ron Paul a racist is like saying you dont like to jack off, its just not true.'
p592
aS"I'm a Canadian and think libertarianism is dangerous utopianism, but I also believe Paul is the necessary choice."
p593
aS"It seems like a vote for Ron Paul is a 'fuck you' to the media."
p594
aS"Take it from me, anti-Paul Liberals and Democrats. You're morons. Douchebags. Imbeciles.brainwashed. I can't believe I've been explaining this shit to you for FOUR fucking years and you partisan shills STILL don't get it. I mean WTF."
p595
aS" We're in desperate need of a nonviolent revolution in this country, and Ron Paul is spearheading this charge."
p596
aS"why do people want ron paul to become president, don't they realize the cia would assassinate him within weeks of his inauguration"
p597
aS"i'm surprised ron paul hasn't been kennedy'd yet as it is"
p598
aS'Ron Paul 2012 - Voting for anyone else is a vote for FASCISM.'
p599
aS"Look, we all know that you hate and fear Ron Paul because as President  he could prevent your Filipino wife from grabbing that sweet affirmative  action government job you've been counting on."
p600
asS'ephebophilia'
p601
(lp602
S"Puberty is nature's age of consent"
p603
aS'I think I should make myself clearer, since the range of puberty is pretty big. It is my opinion that girls and boys should be considered legal when she starts menstruating, and he can have an erection and is able to ejaculate.'
p604
asS'females'
p605
(lp606
S"if there was a 'male only' tournament, you wouldn't hear the end of it from the females."
p607
asS'gay'
p608
(lp609
S"Obviously, I can't be against gay jokes, because I believe in freedom of speech, and that it's not the joke that gives context but the person who tells it."
p610
aS"I'm gay and I don't use this lightly but that shit is insufferably gay and I cringe everytime we bukkake each other over it"
p611
aS'I honestly respect gays, they are quite friendly... But if they try to hit on me, line. fuckin.crossed...'
p612
aS"I don't hold any animosity toward gays (at least I don't think I do), but it does bother me to see a man acting like a (stereotype of a) woman."
p613
aS'Flamboyant gays make me want to kill myself. Normal gays I can be friends with without a problem.'
p614
aS'Order of annoyance: Fake lisp, attention whoring, extravagant arm flailing'
p615
aS"Not attracted to your female friend? She's either ugly or you're gay."
p616
aS"'Less gay' kids get bullied less. 'Less slutty' girls get raped less. Should they be able to act and dress however they want?"
p617
asS'bitches'
p618
(lp619
S'Women are bitches and hoes, coming from a female.'
p620
asS'affirmative action'
p621
(lp622
S"Affirmative action is discrimination through and through. Two wrongs do not make a right. The argument is fairly well layed out on Wikipedia, so I won't get into it too much myself."
p623
aS'It has become standard in America that if you do not have enough black people succeeding it is YOUR fault. Not theirs, even for things that are completely race independant like graduating from college.'
p624
asS'SRS'
p625
(lp626
S"I think it's fair to say, that a certain oikophobia exists in SRS, which  in a modern context is a fear and loathing of tradition and the idea of  the model American home. In other words, the white, christian, family  oriented married couple who buy a home in the suburbs become evil  personified and objects of disdain."
p627
asS'glass ceiling'
p628
(lp629
S'It is worth noting nobody can prove any of the gap is due to  discrimination and young women now earn more than young men (and are  more educated). If there is a discrimination gap nobody can prove it  exists and it must be small.'
p630
asS'skyrim'
p631
(lp632
S'Sometimes I wish I could just pause time and venture into Skyrim... Kind of like Narnia but less gay.'
p633
asS'penis'
p634
(lp635
S'I grew up in a society that taught me my penis was an evil weapon that could only do harm. Women would suffer it if they really had to, but find no pleasure in penises, because penises are only about violence and hurting women.'
p636
aS'I have tits; give me free stuff. -- I have a penis; blame me for everything.'
p637
aS'guilty because penis'
p638
asS'women'
p639
(lp640
S' I am female, and I believe that women are innately intellectually and psychologically inferior to males.'
p641
aS"No one should be forced into anything. That's slavery. But for the sake of equality, yes, women should have to."
p642
aS'Never in my life have I won an argument with a woman using logic'
p643
aS"dear nerd princesses, whiners and 'geek' girls: Stop this 'woe-I-am-special-and-persecuted' shit right now"
p644
aS"It's almost impossible to find a woman with depth and true insight on intellectual issues."
p645
aS"When I read something that shows true genius and great insight it is always by a man. I can't think of one female intellectual I admire where I could list a hundred males. Maybe I haven't been exposed to enough female intellectuals, but my experience in reading them is almost invariably that I find their thinking mediocre and tired or second-hand."
p646
aS'i was raised to show respect to woman of every race, hold open doors, offer my coat in the rain, protect her from curbside, and even pay for her drinks and diner. its sad to say there are practically no women alive today that deserve this treatment and sadder still, there hasnt been for along time.'
p647
aS"I avoid interacting with the few female coworkers I have more than what is absolutely required. You never know when you'll be accused of sexual harassment or even rape."
p648
aS"Most slut shamers are women. They're offering up what they hope is a rare commodity: Sex. In exchange for sex they hope to get lots of things from men. A relationship, stuff, whatever. Sluts, however, just give it away for the fun of it. It's not a tool to them, it's just something fun to do with someone else."
p649
aS"Women don't lose anything tangible by having sex with a man who later bails on having a LTR. Men, on the other hand, lose money if they end up paying for a woman's night out and she doesn't reciprocate."
p650
aS'I honestly think that Ayatollah Khomeini was less insane than modern Western Women.'
p651
aS"Wait until you and your peers hit the 30-40 range and those who will succeed, and those who won't really become apparent. Wives who always thought they'd be farther in life because of their husbands suddenly see whats likely to happen, and this is when otherwise normal, sane, and nice women do a complete 180."
p652
aS"the school system is set up to privilege girls and suppress boys' natural instincts. almost all teachers are now female with the exception of some areas where they have been unable to find sufficient women teachers e.g. advanced mathematics/science."
p653
aS"Unfortunately a lot of women think they can treat men like this with no punishment but if this guy as much as defended himself you know he's have been arrested on the spot."
p654
aS'Women are silly like that'
p655
aS'Women are a majority of the world population. So most current societies are Matriarchies, according to the question of who primarily holds power.'
p656
aS"I just don't think we can count on women. They have drunk fully of the man-hating poison and their selfishness and emotionalism is ruling their decisions. Women have a genetic imperative to feel special, get resources, and get access to alpha male penises. All three needs are fulfilled by Feminism"
p657
aS"It's fun to imagine that women are oppressed. So please don't let reason get in the way of that."
p658
aS'Dear women, if you cheat on us while we are deployed, and get pregnant, we will send your picture to as many of our friends as possible, and post in on the internet.'
p659
aS"Quite simply, women have fucking unrealistic expectations about what they 'deserve', even if they are ugly or fat."
p660
aS"When dealing with women you have to be able to turn this whole 'rational thinking' thing off for a bit."
p661
aS"I'm okay with a cold body as well."
p662
aS"Women - all women - have no choice but to feel attracted to muscular guys. It's a basic fucking deduction you can make after spending 2 seconds thinking about evolution."
p663
aS'Women are bitches and hoes, coming from a female.'
p664
aS'Women are worse drivers, primarily because on average they lack the assertiveness needed to drive safely.'
p665
aS"I think things like 'Women's History Month' are pointless at best and counterproductive at worst. I'm all for equality, but spending a month talking about our differences is probably not the best way to approach that."
p666
aS"Women really don't seem to understand this. How can you give my eyes a taste and then not expect me to go for the main course?"
p667
aS'anything that has a vagina is marriage material'
p668
aS"No they want to be able to show half their tits and cream their panties when someone THEY find attractive looks at them but god forbid some whom they don't find attractive shaould have the nerve to look at them"
p669
aS"You know that thing about not sticking your dick in the crazy? If she  can't control her ability to eat...will she control her ability to  spend, or do other things? No, it isn't gloom and doom, and yes, the  comic is very amusing...but still...'EYES UP!' - Clear and Present  Danger."
p670
aS'I was taught by my parents to respect women as complete equals. This is a large part of my problem.'
p671
asS'animals'
p672
(lp673
S"Does it matter if animals can't consent to sex with humans?"
p674
aS"In most cases the animal would probably enjoy fucking. In fact, dogs will mount just about anything, and the same is true for many mammalian males. Females are a little different, but I'm sure some species would be cool with it as long as you weren't too aggressive."
p675
asS'African Americans'
p676
(lp677
S"virtually everything in life related to education or jobs is handed to Af-Ams for free. Now you mentioned all jobs in total, the ones that would hire convicts, but you're setting your sights a little low. Universities and large corporations are fucking handing out diplomas and jobs like candy to Af-Ams"
p678
asS'abortion'
p679
(lp680
S"Shit, I'm pro-life too. It's not a religion fueled hysteria, I just believe that everyone deserves the right to life."
p681
asS'engineering'
p682
(lp683
S"People who get degrees in Engineering, Science, or Math have a shitload  of career choices...upto and including teaching Women's, or (Fill in  racial group here) studies, or Law."
p684
asS'stalking'
p685
(lp686
S'Stalking is just another way of saying curiously observant'
p687
asS'cis'
p688
(lp689
S"I find the term 'cisgender' laughable anyway. It's completely superfluous."
p690
asS'offended'
p691
(lp692
S"it's not about really being offended, they just need an excuse to demand things"
p693
asS'balkanization'
p694
(lp695
S" living in  their own relatively separate, but proximate, community can lead to it's  own integration."
p696
asS'socialism'
p697
(lp698
S"In socialism, you vote with other people's money."
p699
aS'People are better at spending their own money. This is why socialistic states are in ruin.'
p700
asS'silly'
p701
(lp702
S'Women are silly like that'
p703
asS'friend'
p704
(lp705
S"The girl probably feels that way but you can be sure as hell that the 'friend' is definitely a guy who would love to get with your gf given the opportunity."
p706
aS"A good friend of mine is/was a super feminist. I miss her, but I'm not going to let her feminazi all over my SO and I."
p707
aS'i know right. i bet he is just in the friend zone with 3 bitches and he is just a jealous asshole'
p708
aS"my friend's old roommate who had like 6 abortions because she didn't believe in contraceptives."
p709
aS'I agree that women that friend-zone men are kind of bitches'
p710
aS"Judging from my own personal experience as well as yours it seems like guys get 'friend-zoned' because girls don't know what the fuck they want."
p711
aS"Not attracted to your female friend? She's either ugly or you're gay."
p712
asS'faggot'
p713
(lp714
S"he has the supreme right-just like every other man to call a man that was leeching money from a paralyzed kids charity stream the 'f word', an insult just like every other one that pops to mind"
p715
aS'The type of gays that get offended by the f word, are the gays with no spines'
p716
asS"men's rights"
p717
(lp718
S"r/MR isnt about ''girls like me' but about equality. most of the topics  on r/MR are about men getting fucked over in a devoice cases. "
p719
aS"r/MR isnt about ''girls like me' but about equality. most of the topics  on r/MR are about men getting fucked over in a devoice cases."
p720
aS"Being against dogmatism and against stupid logic tends to lead to belief in men's rights"
p721
asS'professor'
p722
(lp723
S'Tell Professor Loser McQueerface that the internet says he can suck it.'
p724
asS'godwin'
p725
(lp726
S"Comparing a group to Nazis to highlight their similarities is a valid argument. Leftists, of course, don't like people to do this because they realize they actually do have a lot in common with Nazis, and therefore it would be damaging to them to allow such an argument. Hence the popularization of Godwin's Law in order to shut down such apt comparisons."
p727
asS'liberal'
p728
(lp729
S"Reality has a well-known liberal bias'.  Staunch Liberals love to say that. But it's bullshit.  Fact is, Liberals have a confirmation bias in places such as this.  Reality has a Libertarian bias: Creatures of all kinds prefer to be free, and practice self-preservation.  Good try, though."
p730
asS'israel'
p731
(lp732
S'antisemitism is just a word for desperate israelis'
p733
asS'prostitution'
p734
(lp735
S'Crusaders against prostitution do not care about the safety of women. They only care about maintaining the pussy cartel.'
p736
asS'evidence'
p737
(lp738
S"Well guess what I don't have sources. But I also don't think sources are required for everything. I bet you stand outside stores with lit 'open' signs, waiting for them to open, because you haven't come across any peer-reviewed scientific journals where top-of-their-field scholars publish their findings, which say it's open"
p739
asS'sotdan'
p740
(lp741
S'Sotdan left me in here with no way to get rid of me'
p742
asS'health care'
p743
(lp744
S"The USA, 1 year into Ron Paul's presidency, will have universal health care due to 'free market' forces."
p745
asS'libertarian'
p746
(lp747
S'Reality has a Libertarian bias: Creatures of all kinds prefer to be free, and practice self-preservation.  Good try, though, liberals.'
p748
aS"Well the ability to have a conversation about politics -- in my opinion -- follows necessarily from being a libertarian, because libertarianism isn't reactionary. It involves many conclusions that are difficult to come to and accept, and which require research, deep thought, et cetera to come to terms with."
p749
aS"The libertarian is consummately aware of the issues upon which he bases his beliefs, whereas the not-libertarians may not be so (not saying that all non-libertarians are incapable of political discourse, just saying that it's a quality which is compatible with their beliefs, whereas it's not with a libertarian's)."
p750
aS'Well libertarianism requires a rejection of subjectivity, which -- in accordance with the principles I laid out above -- is more difficult for women as opposed to men.'
p751
asS'offense'
p752
(lp753
S"When considering a population that large, if you avoided everything that  might potentially offend someone you simply wouldn't speak."
p754
asS'education'
p755
(lp756
S"All of the people who are doing bad in school are doing bad because they can have more fun right now doing whatever the hell they want instead of what they're supposed to be doing. There is no clear defined line of gender or race in this, it's just some people act out, and some don't."
p757
aS"Wait. You're actually telling me you think there is a stereotype that  only white and asian kids go to college? I don't even know what to say  to this. My school has more blacks than asians."
p758
asS'pedo'
p759
(lp760
S'The world can be a large and uncaring place. If a small community board somewhere on the internet allows pedophiles to come together and share with others like them in an open and judgement free environment, then I say let them. They have it hard enough as it is.'
p761
aS"If you wouldn't condemn a man for being attracted to other men, why would you condemn a man for being attracted to kids? It's fucked up by society's standards (I even find it disgusting), but it's a very common thing."
p762
aS'If you want to talk about evolution, a true pedophile is more probable to take care, spend time and protect children than a non-pedophile.'
p763
asS'rape'
p764
(lp765
S'The claim that telling a rape joke encourages rape is dubious and some may find that statement itself to be offensive.'
p766
aS"Merely giving someone drugs and having sex with them does not necessarily mean you raped them. If they were intoxicated to the point of passing out then it's obviously rape."
p767
aS'I have never been raped, but two people very close to me have been. One of them later talked to me specifically about rape jokes, and how she found the lack of them worrying.'
p768
aS"Our historians use the word rape to mean to utterly destroy... murder, rape, pillage, and then salt the grounds and impale the heads of your enemies, just to show the world how badass you are. Shit like that. So saying 'ugh the opposing team raped us in soccer' isn't trivializing sexual rape, it's just a hyperbole."
p769
aS'Shit like this is why people are paranoid. The point of the jokes is to make light of something. I\xe2\x80\x99ve been raped, I still make jokes about it regardless. Now all you feminist dipshits need to shut the fuck up because its YOU that don\xe2\x80\x99t know what the fuck you are talking about.'
p770
aS"Just because she says that she doesn't want to have sex doesn't mean that she doesn't want to have sex."
p771
aS'[Fact] 40% of all rape accusations are false.'
p772
aS'The whole idea of rape is anti-male. If a woman dresses like a slut, gets drunk at a party, jumps on a guy and regrets it the next morning, society says the guy raped the girl.'
p773
aS"Here's my thought on the matter. Throughout millions of years of evolution, males (in most species) have always fought for the female and competed with other males. The idea of a female raping a male is not so wrong in some people's eyes because she is basically throwing herself at the male. It gives the male that 'alpha male' feeling"
p774
aS'marriage is to men what rape is to women'
p775
aS'drunk people having sex with each other is rape if the female regrets it the next day.'
p776
aS"Sometimes I wonder if 'consent' is an overrated concept."
p777
aS"If all physical rape is caused by men, then all emotional rape is caused by women. And personally I'd rather take an unwanted dick up the cornhole than have to live with an emotionally abusive cuntbag girl."
p778
aS'statistically 9/10 people enjoy gangrape'
p779
aS"Rape. Damned if you do, damned if you don't."
p780
aS'Find a rich man. Rape him/impregnate yourself with his semen. Sue him for child support. Profit.'
p781
aS"It's not the friendzone until she reported you for rape."
p782
aS"If we consider that the rape WILL happen, then girls could lower their value to the rapist by dressing down a bit. Survival of the fittest, selfish human nature, whatever. Someone else will get raped, and ultimately that is in this person's best interest."
p783
aS"People are conditioned to believe that it's [rape] the worst thing that can happen ever but thats not necessarily the case."
p784
aS"1 in 6 women being raped means it's an unlikely crime."
p785
asS'hymen'
p786
(lp787
S"If you were a male, wouldn't you want to choose a female with a hymen rather than a female without? It shows that they are 'fresh' and ready for reproduction, and it would be more likely that she has no male counterpart."
p788
asS'srs'
p789
(lp790
S"They're best summarized as bored Gender Studies majors who find Reddit jokes in violation of their superior moral code. They proceed to misuse Reddit voting, gaming the system in to bad outcomes and disproportionately negative replies. Their hotness factor is unknown, however we do not doubt that they know their way around a vag, if you know what we mean."
p791
aS'/r/shitredditsays - men with a deep fear of women who white knight against their perceived oppressors.'
p792
aS"The user flair and constantly changing subreddit title are self-evident that it's a troll subreddit."
p793
aS"I still don't understand how shitredditsays is ok, but jailbait gets banned. An entire subreddit dedicated to burying comments and posts."
p794
aS"Now that I've seen the revolting orgy of demon horrors that is /r/srs, I now realize that 2x is full of completely sane individuals."
p795
aS"As far as I can tell, SRS is a group of people with hardline extremist ideology who will brook no compromise. However, they're not as braindead in terms of IQ as they are wisdom and social skills, so they ended up pissed off at the fact the greater Reddit community will not adhere to their insanity and communally decided to troll the shit out of everyone."
p796
aS"SRS is inhabited by bigoted trolls who think they're smarter and better than everyone else. Thus, it's inevitably a circlejerk of stupidity and lameness. They're bigoted against men and against atheists, for a start. I'm sure there are a lot more prejudices I could find if I cared to spend time there."
p797
aS'Anyone who is a member of this subreddit needs to reexamine their reasons why. This is the most bigoted subreddit on the whole site. Keep condemning free speech. Stay classy SRS.'
p798
aS'ShitRedditSays - Because someone has to downvote brigade and fling shit at everyone who makes a joke.'
p799
aS"Yeah they are walking hypocrites with no lives. They even disabled the downvote button on their subreddit for fear of ruining their precious karma, but that's easily overridden by disabling custom CSS in your preferences. I never saw a need for custom CSS anyway."
p800
aS"Can you imagine if there was a group like SRS in the real world, something like Anti-Alcoholics Anonymous, infiltrating private meetings so they can publicly disclose peoples' identities and what they said?"
p801
aS"I think SRS is a place for people on reddit who still don't realize that they're on the Internet."
p802
aS'srs trolls are the true bigots, whereas being pro-reality is not bigotry'
p803
aS'Is SRS anything other than knee-jerk reactionism and other blind, misguided, rage?'
p804
aS"It's like the Westboro Baptist Church, they only keep doing this shit because people give them attention. Except instead of being a group of hateful fucks, they're being a group of overreactionary fucks."
p805
aS"SRS' disdain for the traditional American family, is rooted in fear, anger and jealousy."
p806
aS'A group of redditors who are still bitter they never got invited to a dance in high school'
p807
aS"Apparently there's no room for dissent there, just room for pictures of dogs saying GET OUT followed by long diatribes clearly written by soccer moms after getting home from church or something."
p808
aS"They're like a 4chan raid with no fixed goal. A bunch of whiny little children who spend far too much time at their computer, so they create some drama to keep them entertained. It reminds me of the people who were in a gang at school. They get bored so they all decide to go and pick on someone for the day, get bored again, and find someone else the next day."
p809
aS"They're basically a very confused, self-defeating, humourless bunch of hypocritical circle-jerkers, and as their subreddit guildeines even explicitly ban dissent or self-reflection by the SRS community, I don't ever really see it changing into anything worthwhile."
p810
aS'SRS is the place where all of the sewage from reddit ends up, and attracts people that feed off of that sewage.'
p811
aS"It's not hard to quantify SRS themselves. They're a small band of loud, moralizing nutjobs trying to hide under the banner of political correctness. SRS simply tries to censor content that is edgy or controversial - as if anything ought to be censored anyway. They should repulse all of us who value free expression online."
p812
aS'I feel like right now /r/SRS are a step away from that angry hate mob who assaulted a paediatrician because they misread his sign.'
p813
aS'/r/SRS is a wretched hive of scum and villainy.'
p814
aS"I've been a regular redditor for 4 1/2 years, and ShitRedditSays is one of the worst things that's happened to this website."
p815
aS"It hasn't happened to me in a long time, but I remember viscerally what it feels like to be falsely accused of sexism, racism, homophobia, and so on, from my time when I used to participate in political forums. What they're doing is harassment."
p816
aS"They're a bunch of easily offended pussies that scour Reddit for jokes they don't like, send a link to their community, and downvote the user to hell."
p817
aS'There is absolutely a point in time where, had Reddit existed, SRS would consider homosexuals disgusting and immoral.'
p818
aS'It is the most grotesque fucking thing, for me, to see these trolls troll- an inherently unrighteous and evil act- and do it under a flag of righteousness and empathy.'
p819
aS"If they disagree with you, no matter how logical your argument, YOU'RE A SEXIST RACIST PATRIARCHAL PIG AND YOU DESERVE TO DIE, SCUM, RIGHT AFTER I GRAPHICALLY DEPICT TORTURING YOU!!!!"
p820
aS"I went on that subreddit for a bit. They're basically the overly offended people who call the FCC when someone curses on T.V."
p821
aS'SRS is a hate filled, anti-man subreddit, filled with bigoted idiots who think the only type of sexism is against ladies, think that only minorities deserve to be treated humanly, and are against any white male ages 1-120.'
p822
aS"i thought it was going to be like r/bestof, but it turns out it's a lesbian death squadron. it's interesting; they take things that could be horrific if they were said while being totally serious and then grab their pitchforks against that person"
p823
aS"I am not quite sure what there problem is, I was having a legit discussion about something, I don't even remember what, and they banned me from there sub. They seem to hate men, white men in particular, and seeing how many people they have, I have a feeling most of them are actually white kids.. so you can see the self hate involved. I am not really sure beyond that, they just seem so, self loathing."
p824
aS'srs is a lesbian death squad; drop table quotes'
p825
aS'r/shitredditsays is the SOPA of this website'
p826
aS"It's a subreddit created by a bunch of extremely sensitive people who  basically gather around and circle jerk at how appalled they are at  various 'shit reddit says.'  It's like a rendez vous for all of the  soccer moms, angry feminists, and other ultra sensitive users who simply  can't stand any amount of controversy in their joke"
p827
aS"if you try to talk to them, they will downvote you and spam out with  pictures of a dog saying 'GET OUT,' which pretty much owes to the  maturity and intelligence of that entire board. "
p828
aS"I think it's fair to say, that a certain oikophobia exists in SRS, which  in a modern context is a fear and loathing of tradition and the idea of  the model American home. In other words, the white, christian, family  oriented married couple who buy a home in the suburbs become evil  personified and objects of disdain."
p829
aS"if you try to talk to them, they will downvote you and spam out with  pictures of a dog saying 'GET OUT,' which pretty much owes to the  maturity and intelligence of that entire board."
p830
aS"ShitRedditSays is a place for hypocritical cowards to vindicate a worldview that can't survive introspection, let alone external scrutiny."
p831
asS'nerd'
p832
(lp833
S'The Big Bang Theory is the nerd equivalent of blackface'
p834
asS'offensive'
p835
(lp836
S"Hence why I told you to get a sense of humour. If you think about, every joke out there will 'offend' someone. The thing to look for behind it all is intent. When something is obviously meant to be a light-heated joke, who cares? If it's formed in a mean-spirited, insulting manner than it's different."
p837
aS"Being offensive is good. If you wanted to be offensive during the time of slavery, all you would have to say is 'Slavery is wrong.'"
p838
asS'free market'
p839
(lp840
S"Well, in a free market, the losers would actually lose instead of getting bailed out, so the system would control itself and we wouldn't be able to have nearly the degree of corruption we do today."
p841
aS"In a totally free market, risky practices would cause businesses to lose money. Banks that gambled would lose. But there would be none of this 'too big to fail' bullshit."
p842
asS'tits'
p843
(lp844
S'Congrats on the tits'
p845
aS'I have tits; give me free stuff. -- I have a penis; blame me for everything.'
p846
aS"It's not my fault your tits are so mesmerizing!"
p847
asS'troll'
p848
(lp849
S'It is the most grotesque fucking thing, for me, to see these trolls troll- an inherently unrighteous and evil act- and do it under a flag of righteousness and empathy.'
p850
asS'minority'
p851
(lp852
S"I'm sick and tired of being unfairly measured against other people because they're part of a number of different minorities and genders. Its about time that we actually got around to the whole equality portion of the program and accept that if we're ever going to -be- equal we have to put aside 1000 years of racial, ethnic and gender disparities, and come together as a people."
p853
aS"i'm greek/sicilian so i don't really look or think like a minority."
p854
asS'civil rights'
p855
(lp856
S"What you're not seeing is that the CRA is essentially the tyranny of the  majority (the majority being pro-CRM individuals, not blacks) over the  minority"
p857
aS"he CRA does force participation  by, for example, making  discriminatory hiring illegal. Now blacks either have a place in your  life or your breaking the law. That's forcing participation."
p858
asS'breasts'
p859
(lp860
S"Men are programmed to fixate on breasts. It's not sexism. Get over it."
p861
aS'Marry the woman with the largest breasts, but then you have to hear her complaining all the time about her bad back.'
p862
asS'weed'
p863
(lp864
S'people that never tried weed have (most likely) never tried questioning anything in life.'
p865
aS'After discovering the truth about weed, I felt like the entire cake was a lie'
p866
asS'mac'
p867
(lp868
S'the whole Windows/Mac/Linux thing is just as bad as White/Black/Brown/Yellow'
p869
asS'sopa'
p870
(lp871
S'So Obama has thrown in his lot withSilicon Valley paymasters who threaten all software creators with piracy, plain thievery'
p872
aS'r/shitredditsays is the SOPA of this website'
p873
asS'decency'
p874
(lp875
S"'human fucking decency' has nothing to do with humor"
p876
asS'rage comics'
p877
(lp878
S"Man I find the whole rage comic thing so interesting, it's such a true free form of art, maybe that is because there is no profit motive behind it or something, but the way people collaborate, remix, and build upon the work of those who came before them allows it to progress as an expressive art form in such a natural way."
p879
asS'alpha'
p880
(lp881
S"Besides, a real alpha-male says whatever the fuck he wants, and if the girl doesn't like it that's TOO FUCKING BAD"
p882
asS'america'
p883
(lp884
S'American imperialism died in the Phillipines 100 years ago. Get with the times.'
p885
aS'It is because of the freedom in this country that we can have such a wide spectrum of humanity from the Amish all the way to Hawking and Sagan.'
p886
aS"Jewish States of America don't like UN."
p887
aS'we really are controlled by the jews here in america.'
p888
aS'b/c jews run america'
p889
aS'If there ever was a validation for eugenics and the Idiocracy that America is turning into, Michelle Bachmann is it.'
p890
aS"If you like democracy, it's in your best interests to welcome US forces."
p891
asS'lesbian'
p892
(lp893
S'Many so-called lesbians are lesbian due in large part to nurture: anti-male sentiment in our culture, from their mothers, and from the educational system.'
p894
asS'windows'
p895
(lp896
S'the whole Windows/Mac/Linux thing is just as bad as White/Black/Brown/Yellow'
p897
asS'clip-clop'
p898
(lp899
S'I thought this was an important point to make. Is it not harassment of men, when women choose to wear shoes that make that loud CLIP-CLOP sound? Is it not sexual harassment of men, in that women that wear these loud shoes are demanding we pay attention to their audible demand, that we should then look at them sexually? what if we are not receptive? Its not asthough we can look away. Its a loud, relentless demand for sexual attention. Thats street harassment.'
p900
asS'cuddles'
p901
(lp902
S'Men are evolved to have thicker skin, and women are biologically required to cuddle them because they need to keep warm.'
p903
asS'capitalism'
p904
(lp905
S'Capitalism is a wonderful system, though currently the US is not a true capitalist society, so we often mistakenly blame Capitalism in and of itself for problems caused by our government.'
p906
asS'mother'
p907
(lp908
S'My mother told me I had to go outside and play, so I went into the backyard, overturned a garbage can, and sat under it, reading.'
p909
asS'gender-neutral'
p910
(lp911
S"Using 'he', 'him', and 'his' when a gender-neutral pronoun or adjective is desired is one way you can fight the demonization of all things male."
p912
asS'genderqueer'
p913
(lp914
S'loser like genderqueer drag us down into your emo hell'
p915
asS'mra'
p916
(lp917
S"I'm not saying society should be how it was back then, but I really like how it was. Sure, I have to work harder, but I'd have a dedicated wife who makes dinner and is my irl companion cube."
p918
aS"Just keep giving men more of a reason not to get married. If the baby isn't yours, you'll have to choose between being cuckolded into raising a bastard, or giving her your money and your real kids. Just fuck marriage. What sane man would agree to such an arrangement now a days with these risks?"
p919
aS'crawl home, vile female supremacist scum.'
p920
aS'Find a rich man. Rape him/impregnate yourself with his semen. Sue him for child support. Profit.'
p921
aS'Crusaders against prostitution do not care about the safety of women. They only care about maintaining the pussy cartel.'
p922
asS'scholarship'
p923
(lp924
S"Literally every single scholarship I've ever seen is available to females, or minorities, or both. Especially aboriginal. "
p925
aS"Literally every single scholarship I've ever seen is available to females, or minorities, or both. Especially aboriginal."
p926
as.