(dp1
S'mexican'
p2
(lp3
S"I didn't realize that Mexicans had the internet yet."
p4
aS"Uh... if 100% of the Mexican kids in the town were stupid, it's not racist, just observant."
p5
asS'social science'
p6
(lp7
S'Quite frankly,in any argument I dismiss any mentioned statistical study based on the social sciences... Because not even 1% of them are reliable.'
p8
asS'money'
p9
(lp10
S"Times like this I wish I wasn't a woman, but then some bitch would steal all my money."
p11
aS"In socialism, you vote with other people's money."
p12
aS"Don't waste your money on a hooker...it's a lot cheaper to buy rufies"
p13
aS'Money is all that matters. I hate women like you.'
p14
aS'Child support is a good money maker for the Femmocracy. We truly live in a police state (if you are male).'
p15
asS'butt'
p16
(lp17
S'butt'
p18
asS'sperm'
p19
(lp20
S'Until family courts stop treating fathers like cash cows and disposable sperm donors, I will be guarding my seed with my life.'
p21
asS'pussy cartel'
p22
(lp23
S'Crusaders against prostitution do not care about the safety of women. They only care about maintaining the pussy cartel.'
p24
asS'sexism'
p25
(lp26
S"There wouldn't be so much sexism and misogyny if women stopped calling everyone sexists and misogynists."
p27
asS'jailbait'
p28
(lp29
S'There is nothing on there that can classify as pornography, and these females are distributing their own pictures willingly. They can reveal as much as they like, minus nudity. There are some very promiscuous pictures, and some that are rather conservative, and simply beautiful.'
p30
aS"/r/jailbait was removed because of the PC media making filthy accusations of 'child porn', even though only child erotica was present."
p31
aS'Anderson Cooper won.'
p32
asS'antisemitism'
p33
(lp34
S'antisemitism is just a word for desperate israelis'
p35
asS'children'
p36
(lp37
S"There's nothing wrong with kicking your kid's ass every once in a while. I'm not talking about border line child abuse but a spanking when they are acting like little twats is ok in my book."
p38
aS"i was spanked frequently, and i turned out fuckin' awesome. kids are like dogs; sometimes you have to reenforce the lesson."
p39
asS'islam'
p40
(lp41
S"Well I'm of the opinion that some things are inherently bad and Islam is one of them"
p42
aS'islam in itself is a plague to humanity'
p43
asS'masculism'
p44
(lp45
S'I believe reactionary masculism is a result of a pendantic debate when feminism decided not to rename itself to egalitarianism.'
p46
asS'feminist'
p47
(lp48
S'feminists want the upsides of equality (like voting and income) but not the downsides of equality (like getting drafted or getting into bar fights)'
p49
aS'To say that feminists should just be ignored is a bit like saying that Islamists should just be ignored (tbh Islamism is probably far worse than feminism, but the difference is one of degree).'
p50
aS"Feminism is just as violent as Islam, it's just that Feminism uses the state to do it's dirty work so people can't blame it on Feminism directly."
p51
aS"I know one feminist, and a week ago, she told me to get something for her and I told her I was busy. She then grabbed me by my shirt and yelled at me for being a pig. She says that's how men deserve to be talked to. Her friends congratulated her. Radical anything is a bit too crazy."
p52
aS'I am all for equal rights, but the dealing with self righteous overly feministic women I find it more funny to abandon logic and just try to piss them of the most.'
p53
aS'I have actually seen some feminists argue that paternity testing should be illegal as it would hinder women from choosing which men who are used to breed and which men who are deceived to raise.'
p54
aS'To get anything done with feminists, you have to appeal to their greed and selfishness.'
p55
aS"Feminists are insane and that's just life, but the UK is fast becoming THE Feminist State, hence an Insane Feminist Theocracy venerating women and sacrificing men."
p56
aS'oh so fighting against the feminist control of the commercial media automatically makes you paranoid? where are all the feminists campaigning against this shit if they really stand for equality? feminists only care about themselves and they think men are the enemy. this thread is proof. you are blind not to see it buddy'
p57
asS'dick'
p58
(lp59
S"communications is short hand for 'gonna take a lot of dick, and then marry one of these poor fucks'"
p60
asS'black'
p61
(lp62
S'Im so TIRED of black people getting away with offensive terms. They insult of every race, but cant get insulted themselves? That is a double standard. Also EVERY loving COUNTRY HAS HAD SLAVERY, STOP BITCHING ABOUT YOUR HISTORY.'
p63
aS"I'd never discriminate anyone based on what their race is, I would however discriminate against anyone who tried to rob me. Wouldn't you? Or would you happily get robbed by inner city black kids? Maybe you'd avoid the neighborhood too after being robbed? Does that make you racist, or prudent?"
p64
aS'in America, its socially acceptable for black people to make racist remarks in regards to any race.'
p65
aS"Yep, that's Haiti for you . . receives billions of dollars in aid a year from white governments but ya, u got it, white man's fault. Save your black power fascism for someone who gives a shit?"
p66
aS'yes i absolutely believe that crime rates in large black communities are significantly higher'
p67
aS'I asked my black friend to translate it because she comes from the ghetto and i guess is good at translating retard.'
p68
aS'loud black girls seem to always think they can do and say whatever they want and never get touched'
p69
aS'Maybe if youre walking to your car at night and 3 black people are approaching, you get your gun ready b/c statistically, you are more likely to be attacked by black people than non blacks. Not being racist, just trying to say the truth that people are afraid to say.'
p70
aS'I\xe2\x80\x99m culturist. Black American culture sickens me, as it appears to be centered around violence, shirking education and objectifying women.'
p71
aS'Not trying to be racist (Seriously), but why do black people feel it is acceptable to be extremely loud and rude in a movie theater?'
p72
aS"Can't agree more. I'm never offended when somebody calls me 'white'. Why the fuck would I be careful when saying 'black'. Fuck that, I love black girls."
p73
aS'All fat black girls travel around in a pack and are 5x louder than everyone else.'
p74
aS"I'm black, but I can almost sympathize with white supremacists when I can't enjoy my meal in a restaurant because Shanquishanaynay just haaaaad to scream at the top of her lungs to Jakhasianondreisha about how Quashrankquia's baby daddy went to jail for smoking weed."
p75
aS"I'm black, but I can almost sympathize with white supremacists."
p76
aS"Black people don't know how to use the internet."
p77
aS"Everyone's so scared of being racist that we think it's offensive to call black people black."
p78
aS'I have no problem with black people, but black culture in the United States is rude, violent, sexist and causing black people 10x more problems then their skin color.'
p79
asS'rich'
p80
(lp81
S'Find a rich man. Rape him/impregnate yourself with his semen. Sue him for child support. Profit.'
p82
asS'consent'
p83
(lp84
S"Sometimes I wonder if 'consent' is an overrated concept."
p85
asS'patriarchy'
p86
(lp87
S"I have to say that it is interesting how feminists decry the 'patriarchy' when women vote to expand government more than men do..."
p88
asS'violentacrez'
p89
(lp90
S'VA is interesting. I find him fascinating and a wonderful character on reddit in the way I find A Clockwork Orange to be an amazing and repulsive film/book.'
p91
aS"VA has changed me and a lot of us in how we perceive people, sexual 'disorders' and fetishes, and general acceptance and tolerance. I know this isn't enough to 'excuse' what he's 'done' for some people, but on the all I think the scales weigh heavily in his favor as a contributor to reddit."
p92
asS'feminism'
p93
(lp94
S'Feminism, at best, focuses on relatively trivial female issues instead of grotesque male issues and at worst is pure man hate.'
p95
aS"It is because feminism tears up women's side of the contract and chivalry is not manners, it is a contract."
p96
aS"feminism can't survive without chivalry. chivalry IS however, incompatible with equal rights."
p97
aS"Feminism is about ensuring  women aren't treated as less than equal.  Ensuring their advantaged  over men doesn't contradict the ideology.  The 'feminism helps men too' thing is just marketing.  I have never  seen nor heard of any feminist based effort to resolve a male issue."
p98
aS'I have no problem with equality, but much of the feminist movement has become blatantly over-run with anti-male psycho bitches.'
p99
aS"I just don't think we can count on women. They have drunk fully of the man-hating poison and their selfishness and emotionalism is ruling their decisions. Women have a genetic imperative to feel special, get resources, and get access to alpha male penises. All three needs are fulfilled by Feminism"
p100
aS"I argue that feminist political correctness is repressive to sexuality. You can't do or say anything provocative or sexual without the possibility of inflicting some form of grievous personal offense."
p101
aS"It doesn't help that 'gender studies' is effectively a hate movement against men, and that discrimination and hatred of men is the only acceptable and celebrated bigotry left."
p102
aS"And frankly, most feminist writers all through history were so fucking privileged they didn't know how to bake a loaf of bread"
p103
aS'Feminism - removing women from their pampered place in society and shoving them into the workforce. I am all for it.'
p104
asS'woman'
p105
(lp106
S"Times like this I wish I wasn't a woman, but then some bitch would steal all my money."
p107
aS'If a woman is dressed like a slut, my question is, how can she not expect him to act when these urges are directly created by her willful visual stimulation?'
p108
asS'pc police'
p109
(lp110
S"And this is what I mean when I say political correctness is the enemy of men's rights. Expect further censorship and shaming from the PC police in the future (as we've seen plenty of here in the last few weeks, even from some of our own members)."
p111
asS'school'
p112
(lp113
S"the school system is set up to privilege girls and suppress boys' natural instincts. almost all teachers are now female with the exception of some areas where they have been unable to find sufficient women teachers e.g. advanced mathematics/science."
p114
aS'Chivalry is Dead and womyn killed it. I am not responsible for their safety. I start school soon, and if I see a womyn being attacked (unlikely)I will keep right on walking.'
p115
aS'there was once a girl in highschool who faked getting raped in the bathroom for attention because she was a scabby titted birdnest haired bugeyed loser'
p116
aS"that's what i love about these highschool girls. i keep getting older, but they stay the same age."
p117
asS'fat'
p118
(lp119
S"Fat people aren't people. There, I said it."
p120
aS"get a fat or ugly person, put peanut butter under their tongue and while they try to lick it off, they're voiced over."
p121
aS'People are fat because they are just okay with sitting on their asses playing on the internet looking at Lolcats instead of getting on a treadmill.'
p122
aS'If sex is great exercise, then why are there still fat sluts?'
p123
aS'There are no fat, ugly Studs. There are fat, ugly Sluts.'
p124
aS"I hate to say this, but that may be because she's a better choice for reproduction from an evolutionary perspective. We're just apes lady. Metabolic freakiness is a really handy trait to pass on to the ol' progeny."
p125
aS"People don't get fat because they're depressed, even if they get depressed because they're fat. They get fat because they won't stop fucking eating."
p126
aS"If a woman is fat but loves the way she looks and is proud of her appearance, well, she's still fat. If a woman is pretty but thinks she's ugly, well, she's still pretty."
p127
aS"As a woman, you feel that you should be worshipped for possessing a vagina. but seeing you're so lazy and greedy, you became fat and hideous. therefore no desirable men actually want to go near your rancid pussy."
p128
aS'While I believe human beings are born equal, I believe some cultures to be inherently better than others.'
p129
aS"I'm tired of stores no longer carrying anything in size Small. Also, my small tshirt should cost less than the XXL version of the same shirt."
p130
aS'Fat people and smokers need to pay higher health insurance premiums. Put a price tag on it and obesity rate will go down from the alarming 30%.'
p131
aS'All fat black girls travel around in a pack and are 5x louder than everyone else.'
p132
aS'#We should not be making it easier to be hugely overweight.'
p133
asS'eugenics'
p134
(lp135
S'There should be a skill-testing question to breed.'
p136
aS'If there ever was a validation for eugenics and the Idiocracy that America is turning into, Michelle Bachmann is it.'
p137
aS'If your heart breaks with every orphan, support eugenics and sterilization'
p138
aS"Smart people are just as capable of manual labour, if not moreso, because it'll be easier for them to figure out how to improve the process."
p139
aS'He would be better off campaigning with the rest of us to reinstate positive eugenics along with IQ and literacy testing as a prerequisite for citizenship and civil rights privileges.'
p140
aS'You know this is a horrible thing to say, but someone needs to say it. Everyone should be fixed, vasectomy or tubal. Only when you earn enough to have it reversed should you be allowed to reproduce.'
p141
asS'blowjob'
p142
(lp143
S'They probably charge $2,000 for a blowjob though.'
p144
asS'masturbate'
p145
(lp146
S"It's unsanitary to masturbate with vegetables."
p147
asS'haiti'
p148
(lp149
S"Yep, that's Haiti for you . . receives billions of dollars in aid a year from white governments but ya, u got it, white man's fault. Save your black power fascism for someone who gives a shit?"
p150
asS'evolution'
p151
(lp152
S'Congrats for being a great example on how through evolution some members of species die out while others thrive. Real shame for your kids though.'
p153
aS"You don't have to be attracted to a wet hole to deposit your semen. Evolution didn't need for a vagina to be attractive."
p154
asS'white people'
p155
(lp156
S'You know, this white people as the privileged class joke is pretty old.'
p157
asS'gender'
p158
(lp159
S'Stop being your gender/sexuality/race/etc and start being a person.'
p160
asS'gun'
p161
(lp162
S'honestly, anymore I could give a fuck if someone pulled out a gun and blew one of these fuckers heads off.'
p163
aS'Maybe if youre walking to your car at night and 3 black people are approaching, you get your gun ready b/c statistically, you are more likely to be attacked by black people than non blacks. Not being racist, just trying to say the truth that people are afraid to say.'
p164
asS'race'
p165
(lp166
S'Profiling works, and proper profiling includes race.'
p167
aS'Discrimination based on race = unfunny  Jokes based on racial discrimination = funny'
p168
asS'evopsych'
p169
(lp170
S'I think perfect punctuation makes sense from an evolutionary standpoint - it gives the impression of intelligence.'
p171
aS"Looks like most of the girls are postpubescent, and men are biologically hardwired to find the traits of physical maturity desirable. Just because society stigmatizes relations with them doesn't mean men are going to defy millions if years of evolutionary instincts."
p172
aS"If one woman is having sex with all the men, she's monopolizing the gene pool -- she's decreasing the chance of other women having sex with fit men. And these other women want a shot too. So women themselves have evolved to dislike other women having sex with lots of men."
p173
aS"When a sexually promiscuous female has offspring, the male can't be sure that the offspring is his. As a result, males try to distance themselves from sluts in public so that they don't risk having to raise another male's child."
p174
aS'Women are pre-programmed to be more selective on who they mate with so that their offspring has a better chance to survive, while Men are pre-programmed to fuck anything with a heartbeat and a hole.'
p175
aS"Most slut shamers are women. They're offering up what they hope is a rare commodity: Sex. In exchange for sex they hope to get lots of things from men. A relationship, stuff, whatever. Sluts, however, just give it away for the fun of it. It's not a tool to them, it's just something fun to do with someone else."
p176
aS'If you want to talk about evolution, a true pedophile is more probable to take care, spend time and protect children than a non-pedophile.'
p177
aS'basically when you are in a relationship you give off subtle signals or pheromones so that girls can pick up on subconsciously and they are attracted to you more. Something with primeval need to find a partner that will protect and take care of them and since they know that you are with someone you now appear to be more acceptable to fit that protection/survival need then when you are single and have no one.'
p178
aS"Women - all women - have no choice but to feel attracted to muscular guys. It's a basic fucking deduction you can make after spending 2 seconds thinking about evolution."
p179
aS"If we consider that the rape WILL happen, then girls could lower their value to the rapist by dressing down a bit. Survival of the fittest, selfish human nature, whatever. Someone else will get raped, and ultimately that is in this person's best interest."
p180
asS'old'
p181
(lp182
S'When you hit a certain age, you should have to retake the driving test. Old people are awful drivers.'
p183
aS'Old enough for the fire-house pole old enough for my meat pole.'
p184
aS"Most women don't progress past a mental age of 12 years old"
p185
aS"that's what i love about these highschool girls. i keep getting older, but they stay the same age."
p186
asS'jews'
p187
(lp188
S"It's not simply 'I dislike Jews for being Jewish'. I dislike their policies. They are bad for the US."
p189
aS'b/c jews run america'
p190
aS'antisemitism is just a word for desperate israelis'
p191
asS'porn'
p192
(lp193
S"For years people tried to make the claim that those who listened to death metal music or played violent video games would go out and kill people. I think we've discovered that that isn't true. It's the same type of connection here: that if one looks at child porn then they must molest kids."
p194
asS'age of consent'
p195
(lp196
S"Puberty is nature's age of consent."
p197
asS'sex'
p198
(lp199
S"You can have class, or you can have sex, you can't have both... at least not if the sex is done right."
p200
aS"Roses are red, violets are blue. We're having sex cuz I'm stronger than you."
p201
aS"Does it matter if animals can't consent to sex with humans?"
p202
aS'In exchange for sex women hope to get lots of things from men.'
p203
aS'If sex is great exercise, then why are there still fat sluts?'
p204
aS"Women's control over sex is one of the many ways in which men are discriminated against in society at large."
p205
aS"Why is the idea that women are giving something to men when they have sex so widespread? Why is it almost always men who propose, men who pay for drinks and dates, men who approach etc? You know it as well as I do that women control sex. I don't understand why you are debating the point."
p206
aS"to all of you putting the Onus on men as though its their shyness that's the problem. Remember Women control the access and make the decisions and on average are actually having sex more often than the population of males."
p207
aS'Withholding sex is borderline abusive.'
p208
asS'culture'
p209
(lp210
S'While I believe human beings are born equal, I believe some cultures to be inherently better than others.'
p211
aS'Some cultures are objectively worse than others.'
p212
asS'college'
p213
(lp214
S'Communications is a major for slutty college broads who want to party. Not to stereotype or anything...'
p215
aS"Most girls will be delighted to talk to a guy who has the balls to start a conversation with a cutie. If they aren't delighted, it's no fault of yours. They are 'weird' and not worth your time anyways. Most of the 'game' I run is actually on a college campus that I'm not a student at."
p216
aS'Swedish college girls now twice as slutty as in 2001'
p217
aS"I still look down on everyone that doesn't have a college degree. I try not to, but I still do."
p218
asS'hoes'
p219
(lp220
S'Women are bitches and hoes, coming from a female.'
p221
asS'pedo'
p222
(lp223
S'The world can be a large and uncaring place. If a small community board somewhere on the internet allows pedophiles to come together and share with others like them in an open and judgement free environment, then I say let them. They have it hard enough as it is.'
p224
aS"If you wouldn't condemn a man for being attracted to other men, why would you condemn a man for being attracted to kids? It's fucked up by society's standards (I even find it disgusting), but it's a very common thing."
p225
aS'If you want to talk about evolution, a true pedophile is more probable to take care, spend time and protect children than a non-pedophile.'
p226
asS'creep'
p227
(lp228
S"Creep shaming is probably one of the most insidious and anti-equality things you can do. The ability to label men as 'creepy' is just one privilege that women enjoy."
p229
aS"Just like it's not acceptable to label a woman a slut because you don't like what she's wearing, it's not acceptable to label a man a creep because he exercised free speech in a nonthreatening way."
p230
aS'What makes him creepy? The fact that he is a man? Or the fact that maybe, just maybe, our society is so bigoted against men that their very presence in a female dominated area is viewed with suspicion?'
p231
aS'You realize girls like attention from creepy guys, right?'
p232
asS'canada'
p233
(lp234
S'racism is alive and well in Canada, and the victims are Caucasians. Aboriginals sure love their double standards and free things'
p235
asS'ephebophile'
p236
(lp237
S'I said that I would watch 14-year-olds fuck and the moral majority took me by storm. Maybe instead of blindly downvoting ideas that our society finds disgusting, you could explain to me in what way I was not adding to this discussion.'
p238
aS"Wait until you get more facts, then. If he had videos of 17-year-old girls then stand by him and don't let his friendship go. If it was 10-year-olds, then you should probably be stern with him about that kind of stuff."
p239
asS'religion'
p240
(lp241
S'Religion is nothing but bullshit.'
p242
aS'Pretty much all religion are plaques to humanity.'
p243
asS'internet'
p244
(lp245
S"ALL GIRLS ON THE INTERNET ARE FATASSES WITH AN ADAM'S APPLE"
p246
aS'Tell Professor Loser McQueerface that the internet says he can suck it.'
p247
aS'Dear women, if you cheat on us while we are deployed, and get pregnant, we will send your picture to as many of our friends as possible, and post in on the internet.'
p248
aS"I'm tired of the internet making me feel worthless just because I was born with a dick and not a vagina, it's even making me misogynistic."
p249
aS"Black people don't know how to use the internet."
p250
aS"I didn't realize that Mexicans had the internet yet."
p251
aS'You own a vagina, with all the associated privileges and benefits that go along with it, and trolling an internet forum is all you can do?'
p252
aS'Seriously, is everyone here new to the internet or something?'
p253
aS'I have to be proper and nice all day long at work and there are consequences for being a dick in real life. I need an outlet somewhere and the internet is a perfect place.'
p254
aS"I don't know. Call me immature, but I don't think I'm ever going to get bored of being a dick anonymously. If you're going to go out on a limb and post pictures of yourself on the internet, you're free game. You don't have to put pictures online. It's your choice. And if you are fat or stupid looking, I'm going to call you out for my own enjoyment."
p255
asS'marriage'
p256
(lp257
S'Marriage has become all about HER. HER fairytale wedding. HER emotional needs. HER money (his salary.) HER kids, which she is guaranteed custody of. HER phat divorce settlement. Hey ladies, it\xef\xbb\xbf takes two to tango and men have left the dance floor.'
p258
aS"Marriage is ALL about money; it's a money grab. Don't do it (unless you live in China). You will lose."
p259
aS"The most widely used welfare program in the 'western' world is ball-and-chaining men to women through marriage and divorce. We've even instituted wage garnishment, forced labor, and imprisonment for men who refuse to pay their ex-wife's way through life. It's nothing short of legalized slavery."
p260
aS" 'Marital rape' is primarily a false tactic used by women to easily send their husbands to prison, gain custody of their children, or an excuse for when they murder them in cold blood. Furthermore, marriage is a contract where a woman receives money and a man receives sex."
p261
aS"You're a woman. There's no risks for you in a marriage."
p262
aS'Men face social barriers to having children. Reason 1: being unable to find a woman willing to commit to being a woman for a lifetime marriage.'
p263
aS"Marriage doesn't really serve a purpose anymore in Western society, especially America and its Draconian divorce/custody laws that are nakedly in favor of women, heart and soul."
p264
aS'Modern legal marriage is nothing more than a welfare program for women at the expense of men. Anyone who cares to study the issue for even just one day will see this truth.'
p265
asS'misandry'
p266
(lp267
S'misandry apparently dont real'
p268
asS'profiling'
p269
(lp270
S'Profiling works, and proper profiling includes race.'
p271
asS'boobs'
p272
(lp273
S"Girls with huge boobs will never know if they're really interesting."
p274
aS'Seriously though, who the hell puts there boobs on show and gets offended when people look at them, come on.'
p275
aS'Dental Hygienists, are you aware of how happy you are making me with your boobs constantly bumping into the side of my face?'
p276
aS'Would a shopkeep put his best wares(boobs) in the window, then complain when people observe them?'
p277
aS'Talking about her boobs != disrespect her as human being.'
p278
asS'pua'
p279
(lp280
S'The PUA community is not inherently misogynistic. Misogyny is the hatred of women, and I think we can all agree that the last thing the PUA community hates, is women.'
p281
aS'I remember hanging out with one PUA who made out with a girl by only barking like a seal and NOT SAYING A SINGLE WORD'
p282
aS"Many PUA guys will entertain, neg, do kino all the right stuff, but don't close because it is not what they expect and not part of their reality that they project."
p283
aS"TIL: If you say 'neg her' really fast in a bar people will think you're a racist."
p284
aS'A neg is when one brings attention to and feigns subtle disappointment over a slight flaw of a desired female to win her attentions through psychological manipulation of her esteem and her subsequent desire for redemption.'
p285
aS"On a side note, approval shares a close link with desire. Women have evolved to subconsciously link the two as a means of quickly determining the quality of a potential mate. The more readily you give a woman your approval, the less she'll think of you."
p286
aS'your primary girlfriend - best not to lie to her, at least do not tell her you are seeing other women (no girl want to hear this), but do not tell her you two are exclusive either. Keep vague, if she asks, avoid answering. Typically she will stick around 2-3 months with you until she asks the ultimate question: me or them.'
p287
asS'slut'
p288
(lp289
S'basically the slutwalk is saying, i can do whatever i want, i am not responsible for my actions, the world must conform to me.'
p290
aS'If a woman is dressed like a slut, my question is, how can she not expect him to act when these urges are directly created by her willful visual stimulation?'
p291
aS'It is far, far easier for women to have sex then men. If a man has had sex with 74 women he has had to convince every single one of those women to have sex with him. If a woman has had sex with 74 men she is easily convinced.'
p292
aS"'Less gay' kids get bullied less. 'Less slutty' girls get raped less. Should they be able to act and dress however they want?"
p293
asS'french'
p294
(lp295
S'I use french to woo the girlz'
p296
asS'mangina'
p297
(lp298
S"I'm not the monster society wants me to be. So I'm neither mangina nor beast. I'm something new entirely. With my own set of rules. I'm male. Boo."
p299
aS"'mangina' describes a set of political thoughts and behaviours"
p300
asS'kitchen'
p301
(lp302
S"If Edward Cullen was a kitchen set it'd make more sense"
p303
asS'sister'
p304
(lp305
S'thats my excuse for hitting my sister lol'
p306
aS"If your little sister yells to get stuff, show her who's boss and put her in her place... controlled violence is sometimes a necessity."
p307
asS'misogyny'
p308
(lp309
S"'Misogyny' is throwing acid in the face of a woman because she dared to talk to a male outside, or torturing women, or otherwise seeking to actively hurt or invalidate women."
p310
aS'Not misogyny: Bad taste jokes about rape/abuse/etc. Logic. Counterarguments. Disagreements. Harsh language. Saying cunt. Saying bitch. Calling women names. Being pro-life. Calling every woman who accuses a man of rape a liar.'
p311
aS"There wouldn't be so much sexism and misogyny if women stopped calling everyone sexists and misogynists."
p312
asS'daughter'
p313
(lp314
S'My biggest fear of having a daughter is that I would be attracted to her.'
p315
asS'violence'
p316
(lp317
S'I like my beer like i like my violence. Domestic.'
p318
asS'minorities'
p319
(lp320
S'The main reason certain minorities are statistically less successful is that it is looked poorly upon by others in that community to act intelligent and care about education and bettering yourself. Not because other races, popularly white people, are holding them back.'
p321
asS'gun-control'
p322
(lp323
S'the problem is if you ban handguns, you will only be banning them from law-abiding citizens. Criminals will do what criminals always do- break the law. They will then own a gun illegally. This creates the situation where the only ones with weapons are the criminals.'
p324
asS'gww'
p325
(lp326
S'words words words words words words words words words words words words words words words words words words words words words words words words words words words words words words words words words words words words words words words words words words'
p327
asS'logic'
p328
(lp329
S'Logic is not as much a part of the general female condition as it is of the general male condition.'
p330
asS'cat turds'
p331
(lp332
S" I'm surprised you can type that with your keyboard littered in cat turds."
p333
asS'friendzone'
p334
(lp335
S"You are only friend zoned if you keep being her friend after rejection, or she keeps being your friend. Say fuck that and I'd rather not talk to you at all, problemo solvedo"
p336
aS"It's not the friendzone until she reported you for rape."
p337
aS"When a woman treats you like her boyfriend except the only thing missing is sex, it's gets rough after awhile when you have feelings for her."
p338
aS"To be fair when people talk about the 'dreaded friend zone' they mean when you are in love with a girl and the girl knows and yet will use you as a boyfriend except for the romantic/sexual parts."
p339
asS'bachman'
p340
(lp341
S'If there ever was a validation for eugenics and the Idiocracy that America is turning into, Michelle Bachmann is it.'
p342
asS'drunk'
p343
(lp344
S"If a drunk chick you knew asked you to 'stay over' what would you assume she wanted? I know there's a possibility that maybe she just wanted her husband's friend to sleep on their couch but I really doubt it."
p345
aS'Friendly is not the same as wanting to fuck. Move on if she seems only friendly. Cues: not sitting very close, no touching, unresponsive to your touching, not drunk.'
p346
aS"I just don't think we can count on women. They have drunk fully of the man-hating poison and their selfishness and emotionalism is ruling their decisions. Women have a genetic imperative to feel special, get resources, and get access to alpha male penises. All three needs are fulfilled by Feminism"
p347
asS'pussy'
p348
(lp349
S"Pussy is the most expensive thing you'll ever eat."
p350
aS'If you own a pussy, you can get a decent man to do anything for you.'
p351
aS"I guess that's one way of looking at it, but think about it this way: If I bake a pie, and this is a really good pie, and I walk around town just holding the pie, everybody's seeing it and smelling it, getting a good look at the pie....should I get mad if someone eventually asks me if they can have a slice of pie? Eventually someone is even gonna ask,"
p352
aS'if get(pussy) then fuck(pussy) else kill(pussy)'
p353
asS'beer'
p354
(lp355
S'I like my beer like i like my violence. Domestic.'
p356
asS'intellectual'
p357
(lp358
S"It's almost impossible to find a woman with depth and true insight on intellectual issues."
p359
aS'This entire conversation has proven once again that a MAN is more intellectual, more sophisticated, and more of an all-around BETTER PERSON than you.'
p360
asS'gypsies'
p361
(lp362
S'Gypsies are criminals and live like beasts.'
p363
aS"They don't pay any taxes, yet insist on having the best healthcare, and any other benefits they want, by threatening the staff of the hospital with violence. They'll move into any bit of land or lay-by they want, and make shit of it, dumping rubbish, leaving burnt out cars etc. Basically, prime candidates for ethnic cleansing."
p364
aS'Gypsies: The one case where racism is right'
p365
asS'bitch'
p366
(lp367
S"See, women think that when men say the word 'bitch' we're generalizing. We're really not. We actually are just talking about the 'BITCHES'. Not all women."
p368
aS"Don't marry a heartless, evil bitch that refuses to help with family expenses and gets her relationship advice from other heartless, evil bitches"
p369
aS'just wait. date a girl for an extended period of time and choking/slapping the whore/bitch will become as natural as taking a dump'
p370
aS'you are made of bitch'
p371
aS"Bitch won't get on my dick, FUCK DAT"
p372
aS'I give up my seat to a woman if she deserves it. But, as soon as you feel entitled to the seat I say fuck off bitch.'
p373
aS'this is the way of women, as far as I have experienced in life...Bitch until you get what you want, think of something else you want, and then bitch until you get that, in perpetuity.'
p374
aS"'Be yourself.' The argument girls have when they try to justify being a bitch."
p375
aS"She's a bitch. A shallow shallow bitch."
p376
aS"It doesn't even have to be a prostitute either. Guys always have to pay for sex one way or another."
p377
aS"Don't call women bitches. Because bitches are dogs. And dogs are loyal."
p378
asS'female'
p379
(lp380
S"Oh you're a female? Gonewild Post."
p381
aS"Female posters are considered a valued commodity, while male posters are all declared 'losers', 'creeps', 'pervs', 'nerds', 'neck-beards', 'forever alone', etc. Men seem far more welcoming and supporting to women in male dominated fields than women are to men."
p382
aS"I personally love the female body and don't like things that disrupt my view of it"
p383
aS"Female Redditors account for about 20% of the site's userbase. Unless you're talking metaphorically, in which case the number is more like 90%."
p384
aS"Knowing the female tendency for rape fantasies (read any romance paperback) I've often wondered if their constant attacks of 'all men are rapists' is projection resulting from their forbidden lusts."
p385
aS'YEs, all females, except a few cases with mental issues, are automatically bisexual.'
p386
aS'Women are bitches and hoes, coming from a female.'
p387
aS"Not attracted to your female friend? She's either ugly or you're gay."
p388
aS'Most female insecurities come from other females, not men.'
p389
aS'Logic is not as much a part of the general female condition as it is of the general male condition.'
p390
asS'market'
p391
(lp392
S"The USA, 1 year into Ron Paul's presidency, will have universal health care due to 'free market' forces."
p393
asS'quit'
p394
(lp395
S'/quit'
p396
aS'/me quits'
p397
asS'jew'
p398
(lp399
S'If Ron Paul becomes President, there will be a real investigation of 911. That will mean the end of Israel, and every Jew in America will be dangling from a lamp post.'
p400
aS'That international jewry runs the world from behind the scenes, and that the west is a jewish banking empire and that NATO is merely the seargent at arms of international jewry and its global economic interests.'
p401
aS'With such a huge deficit, we need a Jewish president.'
p402
asS'illegal'
p403
(lp404
S'You know what should be illegal? Breeding without a license.'
p405
asS'girls'
p406
(lp407
S'All fat black girls travel around in a pack and are 5x louder than everyone else.'
p408
asS'racism'
p409
(lp410
S"Why is racism a bad thing? I don't see any problem with wanting to be around your own kind. Lots of black people around means more murders, rapes, assaults and robberies etc. Have fun with that."
p411
aS"You know when most of you stupid nerdy white kids on here are in your 50's, you will look back and realise how stupid you were supporting the invasion of your own lands. You will be the oppressed minority in your own country, your own ancestral land. See what you think about it then."
p412
aS'Anti-racism is actually racist'
p413
aS'Some cultures are objectively worse than others.'
p414
aS"I think we do more harm than good trying to 'combat' racism"
p415
aS"If it's accurate, it is not racism, it's sociology."
p416
aS"It's not racist unless you truly mean it you faggot. It's the thought that counts."
p417
aS'I believe the true racists are those who get offended by jokes about race. Everyone else is obviously trying to have a simple, good laugh.'
p418
aS'Racism is just a spcific kind of stereotyping. Stereotyping is a necessity in society to quickly assess threats to property or person.'
p419
aS'When you live your life without race on your mind, you have transcended all of them: racists and non-racists.'
p420
aS"You don't understand the difference between legitimate criticism and racism, therefore you can go fuck yourself."
p421
asS'vagina'
p422
(lp423
S'Generally its taken as you can tell if a girl is sexually active with more men because of what where the smoother parts of the walls are. Since all men are difference sizes, you can tell that she been with many guys because of how unevenly smooth the walls are based on depth. tl;dr doctors can tell if a girl is a slut or not.'
p424
aS"Actually, as a guy, I find baby vaginas cute. Not in a sexual way. They look like fat rolls but between the legs. I'm sure a lot of other people think so too but are too afraid to admit."
p425
aS'We men agonize over the possession of what is basically two square inches of real estate. The vagina.'
p426
aS"I'm tired of the internet making me feel worthless just because I was born with a dick and not a vagina."
p427
aS"You don't have to be attracted to a wet hole to deposit your semen. Evolution didn't need for a vagina to be attractive."
p428
aS'You own a vagina, with all the associated privileges and benefits that go along with it, and trolling an internet forum is all you can do?'
p429
aS'Is it bad that I find the inside of a Vagina ungodly disgusting.'
p430
asS'racist'
p431
(lp432
S'Idle thinking here, but there was recently a study showing everyone but africans have Neanderthal DNA... wonder if the key to maintaining empires is hidden in that part of our code? Totally not racist, but the evolutionist in me is intrigued by this.'
p433
aS"I'm not a racist man, but each one of these savages and cackling bitches is only working towards more stereotypes of their race, and are just bad people to boot."
p434
aS'It may be racist, but in this city there is a dangerous demographic responsible for much of the violence.'
p435
aS"in the United States racism is only racist if it's against black people"
p436
aS'Somehow is never occurs to people that using the term white boy in a derogatory sense might be racist.'
p437
aS"Everyone's Racist"
p438
aS"I'm Not Racist But..."
p439
aS'I\xe2\x80\x99m culturist. Black American culture sickens me, as it appears to be centered around violence, shirking education and objectifying women.'
p440
aS'Not trying to be racist (Seriously), but why do black people feel it is acceptable to be extremely loud and rude in a movie theater?'
p441
aS"...can we not throw that word around? Goddamn am I sick of the word 'racist'."
p442
aS"Everyone's so scared of being racist that we think it's offensive to call black people black."
p443
aS'I have no problem with black people, but black culture in the United States is rude, violent, sexist and causing black people 10x more problems then their skin color.'
p444
aS'Anti-racism is actually racist'
p445
aS'Some cultures are objectively worse than others.'
p446
aS"Uh... if 100% of the Mexican kids in the town were stupid, it's not racist, just observant."
p447
aS'The main reason certain minorities are statistically less successful is that it is looked poorly upon by others in that community to act intelligent and care about education and bettering yourself. Not because other races, popularly white people, are holding them back.'
p448
aS"If it's accurate, it is not racism, it's sociology."
p449
aS"I'm not being racist, I'm being realistic. Comon fucking misconception."
p450
aS"I was just pointing out to my friend how awesome it is that there's so much white guilt going around that any time a non-minority points out a bullshit thing that minorities are doing they're considered racists."
p451
aS'The charges of being condescending or racist are not relevant to the validity of an argument.'
p452
asS'privilege'
p453
(lp454
S'You know, this white people as the privileged class joke is pretty old.'
p455
aS'Open your eyes and see that the most privileged people on this earth are white female Americans.'
p456
asS'white'
p457
(lp458
S'Somehow is never occurs to people that using the term white boy in a derogatory sense might be racist.'
p459
asS'friend'
p460
(lp461
S"The girl probably feels that way but you can be sure as hell that the 'friend' is definitely a guy who would love to get with your gf given the opportunity."
p462
aS"A good friend of mine is/was a super feminist. I miss her, but I'm not going to let her feminazi all over my SO and I."
p463
aS'i know right. i bet he is just in the friend zone with 3 bitches and he is just a jealous asshole'
p464
aS"my friend's old roommate who had like 6 abortions because she didn't believe in contraceptives."
p465
aS'I agree that women that friend-zone men are kind of bitches'
p466
aS"Judging from my own personal experience as well as yours it seems like guys get 'friend-zoned' because girls don't know what the fuck they want."
p467
aS"Not attracted to your female friend? She's either ugly or you're gay."
p468
asS'ron paul'
p469
(lp470
S'You might not agree with Ron Paul 100%, but he is the only candidate who will bring peace and honesty to the White House.'
p471
aS'The prospect of Ron Paul for president would make me want to come over there and naturalise just so that I could vote for him.'
p472
aS"Ron Paul is amazing, in that I don't know of another politician with his absolute indomitable character. The guy is 110% honest, 110% accountable, says what he means, and lives his life being the change he wants to see."
p473
aS"The USA, 1 year into Ron Paul's presidency, will have universal health care due to 'free market' forces."
p474
aS'If Ron Paul becomes President, there will be a real investigation of 911. That will mean the end of Israel, and every Jew in America will be dangling from a lamp post.'
p475
aS"Look, we all know that you hate and fear Ron Paul because as President he could prevent your Filipino wife from grabbing that sweet affirmative action government job you've been counting on. You know, the job you said her skin color would help her to get."
p476
aS'He is NEVER WRONG PAUL. Only RIGHT PAUL!'
p477
aS'Ron Paul is just almost always right. Like when he predicted: 9/11 in the late 90s; the flaws and pains of the Iraq War in 2002, as well as the flaws in the rationale for it; the housing bubble in 2002 and its collapse in 2007.'
p478
aS'If Ron Paul where to die due to assassination, I think that it would make him a martyr for freedom.'
p479
aS'The work Ron Paul has done for liberty cannot be underestimated, he has been the lone voice of sanity in a crazed establishment for nearly 30 years.'
p480
aS"Dr.Paul is the only sensible choice. It's either him or another Keynesian, Zionist, war-hungry Fedsucker."
p481
aS"Ron Paul is the best Republican Primary, but sadly, the media in all of it's 'wisdom' doesn't acknowledge nearly as much as any other candidate running. Sadly, the media is very bias."
p482
aS'Calling Ron Paul a racist is like saying you dont like to jack off, its just not true.'
p483
aS"I'm a Canadian and think libertarianism is dangerous utopianism, but I also believe Paul is the necessary choice."
p484
aS"It seems like a vote for Ron Paul is a 'fuck you' to the media."
p485
aS"Take it from me, anti-Paul Liberals and Democrats. You're morons. Douchebags. Imbeciles.brainwashed. I can't believe I've been explaining this shit to you for FOUR fucking years and you partisan shills STILL don't get it. I mean WTF."
p486
aS" We're in desperate need of a nonviolent revolution in this country, and Ron Paul is spearheading this charge."
p487
aS"why do people want ron paul to become president, don't they realize the cia would assassinate him within weeks of his inauguration"
p488
aS"i'm surprised ron paul hasn't been kennedy'd yet as it is"
p489
aS'Ron Paul 2012 - Voting for anyone else is a vote for FASCISM.'
p490
asS'ephebophilia'
p491
(lp492
S"Puberty is nature's age of consent"
p493
aS'I think I should make myself clearer, since the range of puberty is pretty big. It is my opinion that girls and boys should be considered legal when she starts menstruating, and he can have an erection and is able to ejaculate.'
p494
asS'gay'
p495
(lp496
S"Obviously, I can't be against gay jokes, because I believe in freedom of speech, and that it's not the joke that gives context but the person who tells it."
p497
aS"I'm gay and I don't use this lightly but that shit is insufferably gay and I cringe everytime we bukkake each other over it"
p498
aS'I honestly respect gays, they are quite friendly... But if they try to hit on me, line. fuckin.crossed...'
p499
aS"I don't hold any animosity toward gays (at least I don't think I do), but it does bother me to see a man acting like a (stereotype of a) woman."
p500
aS'Flamboyant gays make me want to kill myself. Normal gays I can be friends with without a problem.'
p501
aS'Order of annoyance: Fake lisp, attention whoring, extravagant arm flailing'
p502
aS"Not attracted to your female friend? She's either ugly or you're gay."
p503
aS"'Less gay' kids get bullied less. 'Less slutty' girls get raped less. Should they be able to act and dress however they want?"
p504
asS'bitches'
p505
(lp506
S'Women are bitches and hoes, coming from a female.'
p507
asS'skyrim'
p508
(lp509
S'Sometimes I wish I could just pause time and venture into Skyrim... Kind of like Narnia but less gay.'
p510
asS'penis'
p511
(lp512
S'I grew up in a society that taught me my penis was an evil weapon that could only do harm. Women would suffer it if they really had to, but find no pleasure in penises, because penises are only about violence and hurting women.'
p513
aS'I have tits; give me free stuff. -- I have a penis; blame me for everything.'
p514
aS'guilty because penis'
p515
asS'women'
p516
(lp517
S' I am female, and I believe that women are innately intellectually and psychologically inferior to males.'
p518
aS"No one should be forced into anything. That's slavery. But for the sake of equality, yes, women should have to."
p519
aS'Never in my life have I won an argument with a woman using logic'
p520
aS"dear nerd princesses, whiners and 'geek' girls: Stop this 'woe-I-am-special-and-persecuted' shit right now"
p521
aS"It's almost impossible to find a woman with depth and true insight on intellectual issues."
p522
aS"When I read something that shows true genius and great insight it is always by a man. I can't think of one female intellectual I admire where I could list a hundred males. Maybe I haven't been exposed to enough female intellectuals, but my experience in reading them is almost invariably that I find their thinking mediocre and tired or second-hand."
p523
aS'i was raised to show respect to woman of every race, hold open doors, offer my coat in the rain, protect her from curbside, and even pay for her drinks and diner. its sad to say there are practically no women alive today that deserve this treatment and sadder still, there hasnt been for along time.'
p524
aS"I avoid interacting with the few female coworkers I have more than what is absolutely required. You never know when you'll be accused of sexual harassment or even rape."
p525
aS"Most slut shamers are women. They're offering up what they hope is a rare commodity: Sex. In exchange for sex they hope to get lots of things from men. A relationship, stuff, whatever. Sluts, however, just give it away for the fun of it. It's not a tool to them, it's just something fun to do with someone else."
p526
aS"Women don't lose anything tangible by having sex with a man who later bails on having a LTR. Men, on the other hand, lose money if they end up paying for a woman's night out and she doesn't reciprocate."
p527
aS'I honestly think that Ayatollah Khomeini was less insane than modern Western Women.'
p528
aS"Wait until you and your peers hit the 30-40 range and those who will succeed, and those who won't really become apparent. Wives who always thought they'd be farther in life because of their husbands suddenly see whats likely to happen, and this is when otherwise normal, sane, and nice women do a complete 180."
p529
aS"the school system is set up to privilege girls and suppress boys' natural instincts. almost all teachers are now female with the exception of some areas where they have been unable to find sufficient women teachers e.g. advanced mathematics/science."
p530
aS"Unfortunately a lot of women think they can treat men like this with no punishment but if this guy as much as defended himself you know he's have been arrested on the spot."
p531
aS'Women are silly like that'
p532
aS'Women are a majority of the world population. So most current societies are Matriarchies, according to the question of who primarily holds power.'
p533
aS"I just don't think we can count on women. They have drunk fully of the man-hating poison and their selfishness and emotionalism is ruling their decisions. Women have a genetic imperative to feel special, get resources, and get access to alpha male penises. All three needs are fulfilled by Feminism"
p534
aS"It's fun to imagine that women are oppressed. So please don't let reason get in the way of that."
p535
aS'Dear women, if you cheat on us while we are deployed, and get pregnant, we will send your picture to as many of our friends as possible, and post in on the internet.'
p536
aS"Quite simply, women have fucking unrealistic expectations about what they 'deserve', even if they are ugly or fat."
p537
aS"When dealing with women you have to be able to turn this whole 'rational thinking' thing off for a bit."
p538
aS"I'm okay with a cold body as well."
p539
aS"Women - all women - have no choice but to feel attracted to muscular guys. It's a basic fucking deduction you can make after spending 2 seconds thinking about evolution."
p540
aS'Women are bitches and hoes, coming from a female.'
p541
aS'Women are worse drivers, primarily because on average they lack the assertiveness needed to drive safely.'
p542
aS"I think things like 'Women's History Month' are pointless at best and counterproductive at worst. I'm all for equality, but spending a month talking about our differences is probably not the best way to approach that."
p543
aS"Women really don't seem to understand this. How can you give my eyes a taste and then not expect me to go for the main course?"
p544
asS'animals'
p545
(lp546
S"Does it matter if animals can't consent to sex with humans?"
p547
aS"In most cases the animal would probably enjoy fucking. In fact, dogs will mount just about anything, and the same is true for many mammalian males. Females are a little different, but I'm sure some species would be cool with it as long as you weren't too aggressive."
p548
asS'abortion'
p549
(lp550
S"Shit, I'm pro-life too. It's not a religion fueled hysteria, I just believe that everyone deserves the right to life."
p551
asS'stalking'
p552
(lp553
S'Stalking is just another way of saying curiously observant'
p554
asS'cis'
p555
(lp556
S"I find the term 'cisgender' laughable anyway. It's completely superfluous."
p557
asS'socialism'
p558
(lp559
S"In socialism, you vote with other people's money."
p560
asS'silly'
p561
(lp562
S'Women are silly like that'
p563
asS'faggot'
p564
(lp565
S"he has the supreme right-just like every other man to call a man that was leeching money from a paralyzed kids charity stream the 'f word', an insult just like every other one that pops to mind"
p566
aS'The type of gays that get offended by the f word, are the gays with no spines'
p567
asS'professor'
p568
(lp569
S'Tell Professor Loser McQueerface that the internet says he can suck it.'
p570
asS'liberal'
p571
(lp572
S"Reality has a well-known liberal bias'.  Staunch Liberals love to say that. But it's bullshit.  Fact is, Liberals have a confirmation bias in places such as this.  Reality has a Libertarian bias: Creatures of all kinds prefer to be free, and practice self-preservation.  Good try, though."
p573
asS'israel'
p574
(lp575
S'antisemitism is just a word for desperate israelis'
p576
asS'prostitution'
p577
(lp578
S'Crusaders against prostitution do not care about the safety of women. They only care about maintaining the pussy cartel.'
p579
asS'sotdan'
p580
(lp581
S'Sotdan left me in here with no way to get rid of me'
p582
asS'health care'
p583
(lp584
S"The USA, 1 year into Ron Paul's presidency, will have universal health care due to 'free market' forces."
p585
asS'libertarian'
p586
(lp587
S'Reality has a Libertarian bias: Creatures of all kinds prefer to be free, and practice self-preservation.  Good try, though, liberals.'
p588
aS"Well the ability to have a conversation about politics -- in my opinion -- follows necessarily from being a libertarian, because libertarianism isn't reactionary. It involves many conclusions that are difficult to come to and accept, and which require research, deep thought, et cetera to come to terms with."
p589
aS"The libertarian is consummately aware of the issues upon which he bases his beliefs, whereas the not-libertarians may not be so (not saying that all non-libertarians are incapable of political discourse, just saying that it's a quality which is compatible with their beliefs, whereas it's not with a libertarian's)."
p590
aS'Well libertarianism requires a rejection of subjectivity, which -- in accordance with the principles I laid out above -- is more difficult for women as opposed to men.'
p591
asS'girl'
p592
(lp593
S"It's easy to tell a girl you are rich. Just wear branded stuff all the time. They see your brand before they even see your face."
p594
aS'Also, you are a girl. Can I see your boobs? :)'
p595
aS' Go to dinner, chew with you mouth closed, laugh at all her jokes.'
p596
aS"You obviously aren't facebook friends with a hot girl just to look at her pictures. People may find this creepy, but everyone knows they do it."
p597
aS'A girl who smokes is a guaranteed swallower.'
p598
aS'just wait. date a girl for an extended period of time and choking/slapping the whore/bitch will become as natural as taking a dump'
p599
aS'My opinion? Never rape a girl like that: she would brag to everyone.'
p600
aS'Just joking girl, enjoy your body while it still gets you a free self-esteem boost!'
p601
aS"Why do girls think that getting a guy's number is such an achievement? Go up to any guy ever and ask for his number. Seriously. Tomorrow. Just try it. Double dare you."
p602
aS'What does an attractive 19 year old girl need to make 20 grand a month? Oh right, she just needs to get naked. IS THERE NO JUSTICE IN THE WORLD?'
p603
aS"lets say I see a cute girl and wanna talk to her; how can I tell if she's on her period?"
p604
aS"i would enjoy seeing the girl i'm about to get paid to bang cry because of what she's doing"
p605
aS'there was once a girl in highschool who faked getting raped in the bathroom for attention because she was a scabby titted birdnest haired bugeyed loser'
p606
aS'Find a girl who wants nothing to do with you. That night, furiously masterbate thinking of her. The next day, tell her.'
p607
asS'rape'
p608
(lp609
S'The claim that telling a rape joke encourages rape is dubious and some may find that statement itself to be offensive.'
p610
aS"Merely giving someone drugs and having sex with them does not necessarily mean you raped them. If they were intoxicated to the point of passing out then it's obviously rape."
p611
aS'I have never been raped, but two people very close to me have been. One of them later talked to me specifically about rape jokes, and how she found the lack of them worrying.'
p612
aS"Our historians use the word rape to mean to utterly destroy... murder, rape, pillage, and then salt the grounds and impale the heads of your enemies, just to show the world how badass you are. Shit like that. So saying 'ugh the opposing team raped us in soccer' isn't trivializing sexual rape, it's just a hyperbole."
p613
aS'Shit like this is why people are paranoid. The point of the jokes is to make light of something. I\xe2\x80\x99ve been raped, I still make jokes about it regardless. Now all you feminist dipshits need to shut the fuck up because its YOU that don\xe2\x80\x99t know what the fuck you are talking about.'
p614
aS"Just because she says that she doesn't want to have sex doesn't mean that she doesn't want to have sex."
p615
aS'[Fact] 40% of all rape accusations are false.'
p616
aS'The whole idea of rape is anti-male. If a woman dresses like a slut, gets drunk at a party, jumps on a guy and regrets it the next morning, society says the guy raped the girl.'
p617
aS"Here's my thought on the matter. Throughout millions of years of evolution, males (in most species) have always fought for the female and competed with other males. The idea of a female raping a male is not so wrong in some people's eyes because she is basically throwing herself at the male. It gives the male that 'alpha male' feeling"
p618
aS'marriage is to men what rape is to women'
p619
aS'drunk people having sex with each other is rape if the female regrets it the next day.'
p620
aS"Sometimes I wonder if 'consent' is an overrated concept."
p621
aS"If all physical rape is caused by men, then all emotional rape is caused by women. And personally I'd rather take an unwanted dick up the cornhole than have to live with an emotionally abusive cuntbag girl."
p622
aS'statistically 9/10 people enjoy gangrape'
p623
aS"Rape. Damned if you do, damned if you don't."
p624
aS'Find a rich man. Rape him/impregnate yourself with his semen. Sue him for child support. Profit.'
p625
aS"It's not the friendzone until she reported you for rape."
p626
aS"If we consider that the rape WILL happen, then girls could lower their value to the rapist by dressing down a bit. Survival of the fittest, selfish human nature, whatever. Someone else will get raped, and ultimately that is in this person's best interest."
p627
aS"People are conditioned to believe that it's [rape] the worst thing that can happen ever but thats not necessarily the case."
p628
aS"1 in 6 women being raped means it's an unlikely crime."
p629
asS'hymen'
p630
(lp631
S"If you were a male, wouldn't you want to choose a female with a hymen rather than a female without? It shows that they are 'fresh' and ready for reproduction, and it would be more likely that she has no male counterpart."
p632
asS'srs'
p633
(lp634
S"They're best summarized as bored Gender Studies majors who find Reddit jokes in violation of their superior moral code. They proceed to misuse Reddit voting, gaming the system in to bad outcomes and disproportionately negative replies. Their hotness factor is unknown, however we do not doubt that they know their way around a vag, if you know what we mean."
p635
aS'/r/shitredditsays - men with a deep fear of women who white knight against their perceived oppressors.'
p636
aS"The user flair and constantly changing subreddit title are self-evident that it's a troll subreddit."
p637
aS"I still don't understand how shitredditsays is ok, but jailbait gets banned. An entire subreddit dedicated to burying comments and posts."
p638
aS"Now that I've seen the revolting orgy of demon horrors that is /r/srs, I now realize that 2x is full of completely sane individuals."
p639
aS"As far as I can tell, SRS is a group of people with hardline extremist ideology who will brook no compromise. However, they're not as braindead in terms of IQ as they are wisdom and social skills, so they ended up pissed off at the fact the greater Reddit community will not adhere to their insanity and communally decided to troll the shit out of everyone."
p640
aS"SRS is inhabited by bigoted trolls who think they're smarter and better than everyone else. Thus, it's inevitably a circlejerk of stupidity and lameness. They're bigoted against men and against atheists, for a start. I'm sure there are a lot more prejudices I could find if I cared to spend time there."
p641
aS'Anyone who is a member of this subreddit needs to reexamine their reasons why. This is the most bigoted subreddit on the whole site. Keep condemning free speech. Stay classy SRS.'
p642
aS'ShitRedditSays - Because someone has to downvote brigade and fling shit at everyone who makes a joke.'
p643
aS"Yeah they are walking hypocrites with no lives. They even disabled the downvote button on their subreddit for fear of ruining their precious karma, but that's easily overridden by disabling custom CSS in your preferences. I never saw a need for custom CSS anyway."
p644
aS"Can you imagine if there was a group like SRS in the real world, something like Anti-Alcoholics Anonymous, infiltrating private meetings so they can publicly disclose peoples' identities and what they said?"
p645
aS"I think SRS is a place for people on reddit who still don't realize that they're on the Internet."
p646
aS'srs trolls are the true bigots, whereas being pro-reality is not bigotry'
p647
aS'Is SRS anything other than knee-jerk reactionism and other blind, misguided, rage?'
p648
aS"It's like the Westboro Baptist Church, they only keep doing this shit because people give them attention. Except instead of being a group of hateful fucks, they're being a group of overreactionary fucks."
p649
aS"SRS' disdain for the traditional American family, is rooted in fear, anger and jealousy."
p650
aS'A group of redditors who are still bitter they never got invited to a dance in high school'
p651
aS"Apparently there's no room for dissent there, just room for pictures of dogs saying GET OUT followed by long diatribes clearly written by soccer moms after getting home from church or something."
p652
aS"They're like a 4chan raid with no fixed goal. A bunch of whiny little children who spend far too much time at their computer, so they create some drama to keep them entertained. It reminds me of the people who were in a gang at school. They get bored so they all decide to go and pick on someone for the day, get bored again, and find someone else the next day."
p653
aS"They're basically a very confused, self-defeating, humourless bunch of hypocritical circle-jerkers, and as their subreddit guildeines even explicitly ban dissent or self-reflection by the SRS community, I don't ever really see it changing into anything worthwhile."
p654
aS'SRS is the place where all of the sewage from reddit ends up, and attracts people that feed off of that sewage.'
p655
aS"It's not hard to quantify SRS themselves. They're a small band of loud, moralizing nutjobs trying to hide under the banner of political correctness. SRS simply tries to censor content that is edgy or controversial - as if anything ought to be censored anyway. They should repulse all of us who value free expression online."
p656
aS'I feel like right now /r/SRS are a step away from that angry hate mob who assaulted a paediatrician because they misread his sign.'
p657
aS'/r/SRS is a wretched hive of scum and villainy.'
p658
aS"I've been a regular redditor for 4 1/2 years, and ShitRedditSays is one of the worst things that's happened to this website."
p659
aS"It hasn't happened to me in a long time, but I remember viscerally what it feels like to be falsely accused of sexism, racism, homophobia, and so on, from my time when I used to participate in political forums. What they're doing is harassment."
p660
aS"They're a bunch of easily offended pussies that scour Reddit for jokes they don't like, send a link to their community, and downvote the user to hell."
p661
aS'There is absolutely a point in time where, had Reddit existed, SRS would consider homosexuals disgusting and immoral.'
p662
aS'It is the most grotesque fucking thing, for me, to see these trolls troll- an inherently unrighteous and evil act- and do it under a flag of righteousness and empathy.'
p663
aS"If they disagree with you, no matter how logical your argument, YOU'RE A SEXIST RACIST PATRIARCHAL PIG AND YOU DESERVE TO DIE, SCUM, RIGHT AFTER I GRAPHICALLY DEPICT TORTURING YOU!!!!"
p664
aS"I went on that subreddit for a bit. They're basically the overly offended people who call the FCC when someone curses on T.V."
p665
aS'SRS is a hate filled, anti-man subreddit, filled with bigoted idiots who think the only type of sexism is against ladies, think that only minorities deserve to be treated humanly, and are against any white male ages 1-120.'
p666
aS"i thought it was going to be like r/bestof, but it turns out it's a lesbian death squadron. it's interesting; they take things that could be horrific if they were said while being totally serious and then grab their pitchforks against that person"
p667
aS"I am not quite sure what there problem is, I was having a legit discussion about something, I don't even remember what, and they banned me from there sub. They seem to hate men, white men in particular, and seeing how many people they have, I have a feeling most of them are actually white kids.. so you can see the self hate involved. I am not really sure beyond that, they just seem so, self loathing."
p668
aS'srs is a lesbian death squad; drop table quotes'
p669
aS'r/shitredditsays is the SOPA of this website'
p670
asS'offensive'
p671
(lp672
S"Hence why I told you to get a sense of humour. If you think about, every joke out there will 'offend' someone. The thing to look for behind it all is intent. When something is obviously meant to be a light-heated joke, who cares? If it's formed in a mean-spirited, insulting manner than it's different."
p673
aS"Being offensive is good. If you wanted to be offensive during the time of slavery, all you would have to say is 'Slavery is wrong.'"
p674
asS'free market'
p675
(lp676
S"Well, in a free market, the losers would actually lose instead of getting bailed out, so the system would control itself and we wouldn't be able to have nearly the degree of corruption we do today."
p677
aS"In a totally free market, risky practices would cause businesses to lose money. Banks that gambled would lose. But there would be none of this 'too big to fail' bullshit."
p678
asS'tits'
p679
(lp680
S'Congrats on the tits'
p681
aS'I have tits; give me free stuff. -- I have a penis; blame me for everything.'
p682
aS"It's not my fault your tits are so mesmerizing!"
p683
asS'troll'
p684
(lp685
S'It is the most grotesque fucking thing, for me, to see these trolls troll- an inherently unrighteous and evil act- and do it under a flag of righteousness and empathy.'
p686
asS'minority'
p687
(lp688
S"I'm sick and tired of being unfairly measured against other people because they're part of a number of different minorities and genders. Its about time that we actually got around to the whole equality portion of the program and accept that if we're ever going to -be- equal we have to put aside 1000 years of racial, ethnic and gender disparities, and come together as a people."
p689
asS'breasts'
p690
(lp691
S"Men are programmed to fixate on breasts. It's not sexism. Get over it."
p692
aS'Marry the woman with the largest breasts, but then you have to hear her complaining all the time about her bad back.'
p693
asS'weed'
p694
(lp695
S'people that never tried weed have (most likely) never tried questioning anything in life.'
p696
aS'After discovering the truth about weed, I felt like the entire cake was a lie'
p697
asS'alpha'
p698
(lp699
S"Besides, a real alpha-male says whatever the fuck he wants, and if the girl doesn't like it that's TOO FUCKING BAD"
p700
asS'america'
p701
(lp702
S'American imperialism died in the Phillipines 100 years ago. Get with the times.'
p703
aS'It is because of the freedom in this country that we can have such a wide spectrum of humanity from the Amish all the way to Hawking and Sagan.'
p704
aS"Jewish States of America don't like UN."
p705
aS'we really are controlled by the jews here in america.'
p706
aS'b/c jews run america'
p707
aS'If there ever was a validation for eugenics and the Idiocracy that America is turning into, Michelle Bachmann is it.'
p708
aS"If you like democracy, it's in your best interests to welcome US forces."
p709
asS'lesbian'
p710
(lp711
S'Many so-called lesbians are lesbian due in large part to nurture: anti-male sentiment in our culture, from their mothers, and from the educational system.'
p712
asS'nerd'
p713
(lp714
S'The Big Bang Theory is the nerd equivalent of blackface'
p715
asS'clip-clop'
p716
(lp717
S'I thought this was an important point to make. Is it not harassment of men, when women choose to wear shoes that make that loud CLIP-CLOP sound? Is it not sexual harassment of men, in that women that wear these loud shoes are demanding we pay attention to their audible demand, that we should then look at them sexually? what if we are not receptive? Its not asthough we can look away. Its a loud, relentless demand'
p718
asS'capitalism'
p719
(lp720
S'Capitalism is a wonderful system, though currently the US is not a true capitalist society, so we often mistakenly blame Capitalism in and of itself for problems caused by our government.'
p721
asS'mother'
p722
(lp723
S'My mother told me I had to go outside and play, so I went into the backyard, overturned a garbage can, and sat under it, reading.'
p724
asS'gender-neutral'
p725
(lp726
S"Using 'he', 'him', and 'his' when a gender-neutral pronoun or adjective is desired is one way you can fight the demonization of all things male."
p727
asS'mra'
p728
(lp729
S"I'm not saying society should be how it was back then, but I really like how it was. Sure, I have to work harder, but I'd have a dedicated wife who makes dinner and is my irl companion cube."
p730
aS"Just keep giving men more of a reason not to get married. If the baby isn't yours, you'll have to choose between being cuckolded into raising a bastard, or giving her your money and your real kids. Just fuck marriage. What sane man would agree to such an arrangement now a days with these risks?"
p731
aS'crawl home, vile female supremacist scum.'
p732
aS'Find a rich man. Rape him/impregnate yourself with his semen. Sue him for child support. Profit.'
p733
aS'Crusaders against prostitution do not care about the safety of women. They only care about maintaining the pussy cartel.'
p734
as.