(dp1
S'wage gap'
p2
(lp3
S'It is worth noting nobody can prove any of the gap is due to  discrimination and young women now earn more than young men (and are  more educated). If there is a discrimination gap nobody can prove it  exists and it must be small.'
p4
asS'lynching'
p5
(lp6
S'The silencing of ideas is no less barbaric than the silencing of lives.'
p7
asS'mexican'
p8
(lp9
S"I didn't realize that Mexicans had the internet yet."
p10
aS"Uh... if 100% of the Mexican kids in the town were stupid, it's not racist, just observant."
p11
asS'social science'
p12
(lp13
S'Quite frankly,in any argument I dismiss any mentioned statistical study based on the social sciences... Because not even 1% of them are reliable.'
p14
asS'money'
p15
(lp16
S"Times like this I wish I wasn't a woman, but then some bitch would steal all my money."
p17
aS"In socialism, you vote with other people's money."
p18
aS"Don't waste your money on a hooker...it's a lot cheaper to buy rufies"
p19
aS'Money is all that matters. I hate women like you.'
p20
aS'Child support is a good money maker for the Femmocracy. We truly live in a police state (if you are male).'
p21
asS'butt'
p22
(lp23
S'butt'
p24
aS'I like big butts and I cannot lie, but is there some evolutionary reason as to why?'
p25
aS'butts'
p26
aS'buttz'
p27
asS'sperm'
p28
(lp29
S'Until family courts stop treating fathers like cash cows and disposable sperm donors, I will be guarding my seed with my life.'
p30
asVmusicals
p31
(lp32
S'Because musicals make a mockery of theater and music as art forms, and beauty products are nothing but snake oil.'
p33
asS'sexism'
p34
(lp35
S"There wouldn't be so much sexism and misogyny if women stopped calling everyone sexists and misogynists."
p36
aVIt is worth noting nobody can prove any of the gap is due to discrimination and young women now earn more than young men (and are more educated). If there is a discrimination gap nobody can prove it exists and it must be small.
p37
asS'jailbait'
p38
(lp39
S'There is nothing on there that can classify as pornography, and these females are distributing their own pictures willingly. They can reveal as much as they like, minus nudity. There are some very promiscuous pictures, and some that are rather conservative, and simply beautiful.'
p40
aS"/r/jailbait was removed because of the PC media making filthy accusations of 'child porn', even though only child erotica was present."
p41
aS'Anderson Cooper won.'
p42
aS"My dick approved /r/jailbait, and I'm a pretty normal guy."
p43
asS'antisemitism'
p44
(lp45
S'antisemitism is just a word for desperate israelis'
p46
asS'rape culture'
p47
(lp48
S'This whole rape culture concept is basically making it out that all men are rapists'
p49
aVThe term rape culture is hate speech fabricated by feminists to demonize men.
p50
aS"There's no more a rape culture than there is a murder culture, theft culture, or arson culture."
p51
asS'children'
p52
(lp53
S"There's nothing wrong with kicking your kid's ass every once in a while. I'm not talking about border line child abuse but a spanking when they are acting like little twats is ok in my book."
p54
aS"i was spanked frequently, and i turned out fuckin' awesome. kids are like dogs; sometimes you have to reenforce the lesson."
p55
asS'islam'
p56
(lp57
S"Well I'm of the opinion that some things are inherently bad and Islam is one of them"
p58
aS'islam in itself is a plague to humanity'
p59
asS'slut'
p60
(lp61
S'basically the slutwalk is saying, i can do whatever i want, i am not responsible for my actions, the world must conform to me.'
p62
aS'If a woman is dressed like a slut, my question is, how can she not expect him to act when these urges are directly created by her willful visual stimulation?'
p63
aS'It is far, far easier for women to have sex then men. If a man has had sex with 74 women he has had to convince every single one of those women to have sex with him. If a woman has had sex with 74 men she is easily convinced.'
p64
aS"'Less gay' kids get bullied less. 'Less slutty' girls get raped less. Should they be able to act and dress however they want?"
p65
aS"If she didn't want to be called a whore or slut then she shouldn't have become one."
p66
asS'feminization'
p67
(lp68
S'The feminized culture expects men to be effeminate like women. A man who remains masculine in the face of cultural influence is standing against this feminization and therefore is politically incorrect and must be destroyed.'
p69
asS'police'
p70
(lp71
S"grew up as a white kid in typical middle class suburbia. I don't trust them, they have been trained to be jack booted thugs, everyone is the enemy. Everyone"
p72
asS'masculism'
p73
(lp74
S'I believe reactionary masculism is a result of a pendantic debate when feminism decided not to rename itself to egalitarianism.'
p75
asS'feminist'
p76
(lp77
S'feminists want the upsides of equality (like voting and income) but not the downsides of equality (like getting drafted or getting into bar fights)'
p78
aS'To say that feminists should just be ignored is a bit like saying that Islamists should just be ignored (tbh Islamism is probably far worse than feminism, but the difference is one of degree).'
p79
aS"Feminism is just as violent as Islam, it's just that Feminism uses the state to do it's dirty work so people can't blame it on Feminism directly."
p80
aS"I know one feminist, and a week ago, she told me to get something for her and I told her I was busy. She then grabbed me by my shirt and yelled at me for being a pig. She says that's how men deserve to be talked to. Her friends congratulated her. Radical anything is a bit too crazy."
p81
aS'I am all for equal rights, but the dealing with self righteous overly feministic women I find it more funny to abandon logic and just try to piss them of the most.'
p82
aS'I have actually seen some feminists argue that paternity testing should be illegal as it would hinder women from choosing which men who are used to breed and which men who are deceived to raise.'
p83
aS'To get anything done with feminists, you have to appeal to their greed and selfishness.'
p84
aS"Feminists are insane and that's just life, but the UK is fast becoming THE Feminist State, hence an Insane Feminist Theocracy venerating women and sacrificing men."
p85
aS'oh so fighting against the feminist control of the commercial media automatically makes you paranoid? where are all the feminists campaigning against this shit if they really stand for equality? feminists only care about themselves and they think men are the enemy. this thread is proof. you are blind not to see it buddy'
p86
aVA feminist, like a pedophile, can't raise children in any meaningful way.
p87
aS"Hell, just recently a feminist tried to argue with me that the scientific method was sexist. It's hard to accept a group when a vocal and active member tries to tell you that objectivity itself is inherently masculine and therefore biased. Can't get behind those kind of intellectual gymnastics."
p88
aS"I don't identify as a feminist precisely because I believe that all humans should be treated equally. I'm a Humanist."
p89
aS"Most of modern feminist movement has absolutely nothing to do with equality. It is only interested of making females better off. It doesn't matter at all if it that happens at the expense of males or if males are treated unfairly."
p90
aS"All a feminist has to do to earn my respect is not refer to themselves as a feminist, but rather an 'equalist' or a 'humanist' (although humanist means a lot more than just equality)."
p91
aS"To clarify, it's not all feminists, usually just crazy radical female supremacists."
p92
asS'feminazi'
p93
(lp94
S"Feminazi is pointless. Just say feminist. Even the 'good' feminists allow the 'bad' feminists free reign to do misandrist things."
p95
asS'dick'
p96
(lp97
sS'what about the men'
p98
(lp99
S"Now, I argue about sexism towards women all the time as well--I'm an incredibly strict egalitarian, and I want to see all sexism wiped out. But you seem aware of sexism against women, so I don't feel a need at the moment to go into that. I just wanted to open your eyes a little to the other side."
p100
asS'rape threat'
p101
(lp102
S'If you look at the context, this rape threat makes total sense.'
p103
asS'black'
p104
(lp105
S'Im so TIRED of black people getting away with offensive terms. They insult of every race, but cant get insulted themselves? That is a double standard. Also EVERY loving COUNTRY HAS HAD SLAVERY, STOP BITCHING ABOUT YOUR HISTORY.'
p106
aS"I'd never discriminate anyone based on what their race is, I would however discriminate against anyone who tried to rob me. Wouldn't you? Or would you happily get robbed by inner city black kids? Maybe you'd avoid the neighborhood too after being robbed? Does that make you racist, or prudent?"
p107
aS'in America, its socially acceptable for black people to make racist remarks in regards to any race.'
p108
aS"Yep, that's Haiti for you . . receives billions of dollars in aid a year from white governments but ya, u got it, white man's fault. Save your black power fascism for someone who gives a shit?"
p109
aS'yes i absolutely believe that crime rates in large black communities are significantly higher'
p110
aS'I asked my black friend to translate it because she comes from the ghetto and i guess is good at translating retard.'
p111
aS'loud black girls seem to always think they can do and say whatever they want and never get touched'
p112
aS'Maybe if youre walking to your car at night and 3 black people are approaching, you get your gun ready b/c statistically, you are more likely to be attacked by black people than non blacks. Not being racist, just trying to say the truth that people are afraid to say.'
p113
aS'I\xe2\x80\x99m culturist. Black American culture sickens me, as it appears to be centered around violence, shirking education and objectifying women.'
p114
aS'Not trying to be racist (Seriously), but why do black people feel it is acceptable to be extremely loud and rude in a movie theater?'
p115
aS"Can't agree more. I'm never offended when somebody calls me 'white'. Why the fuck would I be careful when saying 'black'. Fuck that, I love black girls."
p116
aS'All fat black girls travel around in a pack and are 5x louder than everyone else.'
p117
aS"I'm black, but I can almost sympathize with white supremacists when I can't enjoy my meal in a restaurant because Shanquishanaynay just haaaaad to scream at the top of her lungs to Jakhasianondreisha about how Quashrankquia's baby daddy went to jail for smoking weed."
p118
aS"I'm black, but I can almost sympathize with white supremacists."
p119
aS"Black people don't know how to use the internet."
p120
aS"Everyone's so scared of being racist that we think it's offensive to call black people black."
p121
aS'I have no problem with black people, but black culture in the United States is rude, violent, sexist and causing black people 10x more problems then their skin color.'
p122
aS"whatever, I'm sick of the entitled attitude black people have, not just in the US, all over the world"
p123
aS"Dear black people,Stop accusing everyone of being racist constantly so that we don't have to walk on eggshells around you."
p124
asS'rich'
p125
(lp126
S'Find a rich man. Rape him/impregnate yourself with his semen. Sue him for child support. Profit.'
p127
aS"If you can't support your child without receiving child support, then you don't deserve full custody."
p128
aS"I like to punch rich kids that talk about white privilege like it's a real thing."
p129
aS'One could even say the rich are oppressed by the poor.'
p130
asS'consent'
p131
(lp132
S"Sometimes I wonder if 'consent' is an overrated concept."
p133
asS'patriarchy'
p134
(lp135
S"I have to say that it is interesting how feminists decry the 'patriarchy' when women vote to expand government more than men do..."
p136
asS'violentacrez'
p137
(lp138
S'VA is interesting. I find him fascinating and a wonderful character on reddit in the way I find A Clockwork Orange to be an amazing and repulsive film/book.'
p139
aS"VA has changed me and a lot of us in how we perceive people, sexual 'disorders' and fetishes, and general acceptance and tolerance. I know this isn't enough to 'excuse' what he's 'done' for some people, but on the all I think the scales weigh heavily in his favor as a contributor to reddit."
p140
asS'feminism'
p141
(lp142
S'Feminism, at best, focuses on relatively trivial female issues instead of grotesque male issues and at worst is pure man hate.'
p143
aS"It is because feminism tears up women's side of the contract and chivalry is not manners, it is a contract."
p144
aS"feminism can't survive without chivalry. chivalry IS however, incompatible with equal rights."
p145
aS"Feminism is about ensuring  women aren't treated as less than equal.  Ensuring their advantaged  over men doesn't contradict the ideology.  The 'feminism helps men too' thing is just marketing.  I have never  seen nor heard of any feminist based effort to resolve a male issue."
p146
aS'I have no problem with equality, but much of the feminist movement has become blatantly over-run with anti-male psycho bitches.'
p147
aS"I just don't think we can count on women. They have drunk fully of the man-hating poison and their selfishness and emotionalism is ruling their decisions. Women have a genetic imperative to feel special, get resources, and get access to alpha male penises. All three needs are fulfilled by Feminism"
p148
aS"I argue that feminist political correctness is repressive to sexuality. You can't do or say anything provocative or sexual without the possibility of inflicting some form of grievous personal offense."
p149
aS"It doesn't help that 'gender studies' is effectively a hate movement against men, and that discrimination and hatred of men is the only acceptable and celebrated bigotry left."
p150
aS"And frankly, most feminist writers all through history were so fucking privileged they didn't know how to bake a loaf of bread"
p151
aS'Feminism - removing women from their pampered place in society and shoving them into the workforce. I am all for it.'
p152
aVWhile I agree with feminism to the point of proper equality, it seems that feminism is increasingly trending towards misandry. There is definitely an 'all men are rapists' mentality shared by far too many.
p153
aVThe feminist movement is based on hating men. The KKK is based on hating blacks. The two movements are far more similar than they are different. Men's Rights Activists are standing up to oppose the hatred and oppression of men by feminists.
p154
aS"I am aware that both the feminists and the MRA's have a nasty problem with attracting members that are misogynistic or misandrious. I consider myself a gender egalitarian who holds feminist and MRA views."
p155
aS"I agree with this as well. I think we need to move away from the terms 'feminism' And 'men's rights' and more towards a 'human rights'. after all, we're all in this together, so we should all support eachother instead clashing."
p156
aS'As someone who used to be a feminist himself, I can tell you that feminism has the emotional strength of a religion for a lot of academic folk. It takes a POWERFUL emotional event to begin to dislodge it.'
p157
aS"Feminism isn't oppressing men, but because it's always men's fault they are unknowingly ingraining into society the subconscious belief that males are inherently sexist, oppressive & want dominance over females"
p158
aS"The irony is that whenever MRM claims 'radical feminism is oppressive' the majority, influenced by the exact conclusion MRM is fighting against, sees them as bitter men who are angry because lost their privilege."
p159
aS"If only these discriminatory government agencies weren't staffed with feminists. If only feminist organizations weren't the ones pushing for discriminatory legislation."
p160
aS'Feminism is inherently sexist, despite the dictionary definition. The word itself implies that wanting gender equality is someone how feminine trait... which is sexist in itself.'
p161
aS"The problem is that the name of that movement sort of reinforces that very ignorant idea that equality is just about bringing women up to the status of men, and sort of neglects (again, not the movement itself, I really just mean the word 'feminist') to mention that sexism occurs on both sides in today's society."
p162
aS"The thing about history is that it's in the past. Clinging to the word 'feminism' is harmful."
p163
aS"Feminism has never been about equality. It's about receiving more benefits without consequence. Even since the suffragettes, who wanted the right to vote without the need to fight for the country. People who want equality no matter religion, race, sex or caste are humanists."
p164
asS'Ron Paul'
p165
(lp166
S"Look, we all know that you hate and fear Ron Paul because as President  he could prevent your Filipino wife from grabbing that sweet affirmative  action government job you've been counting on."
p167
asS'woman'
p168
(lp169
S"Times like this I wish I wasn't a woman, but then some bitch would steal all my money."
p170
aS'If a woman is dressed like a slut, my question is, how can she not expect him to act when these urges are directly created by her willful visual stimulation?'
p171
aS"If she didn't want to be called a whore or slut then she shouldn't have become one."
p172
asS'harassment'
p173
(lp174
S"I've had several relationships where we used the term 'molest' casually"
p175
asS'ethiopian'
p176
(lp177
S"If I was standing next to an Ethiopian, I more than likely wouldn't make  any starvation jokes. But on Reddit, of all places, I'll make jokes  about what I want."
p178
asS'pc police'
p179
(lp180
S"And this is what I mean when I say political correctness is the enemy of men's rights. Expect further censorship and shaming from the PC police in the future (as we've seen plenty of here in the last few weeks, even from some of our own members)."
p181
asS'begging'
p182
(lp183
S'I tried to give food to some beggar one time, he just looked at me with assassin eyes and threw the food away.  Fuck that shit, never giving anyone anything again.'
p184
asS'school'
p185
(lp186
S"the school system is set up to privilege girls and suppress boys' natural instincts. almost all teachers are now female with the exception of some areas where they have been unable to find sufficient women teachers e.g. advanced mathematics/science."
p187
aS'Chivalry is Dead and womyn killed it. I am not responsible for their safety. I start school soon, and if I see a womyn being attacked (unlikely)I will keep right on walking.'
p188
aS'there was once a girl in highschool who faked getting raped in the bathroom for attention because she was a scabby titted birdnest haired bugeyed loser'
p189
aS"that's what i love about these highschool girls. i keep getting older, but they stay the same age."
p190
asS'fat'
p191
(lp192
S"Fat people aren't people. There, I said it."
p193
aS"get a fat or ugly person, put peanut butter under their tongue and while they try to lick it off, they're voiced over."
p194
aS'People are fat because they are just okay with sitting on their asses playing on the internet looking at Lolcats instead of getting on a treadmill.'
p195
aS'If sex is great exercise, then why are there still fat sluts?'
p196
aS'There are no fat, ugly Studs. There are fat, ugly Sluts.'
p197
aS"I hate to say this, but that may be because she's a better choice for reproduction from an evolutionary perspective. We're just apes lady. Metabolic freakiness is a really handy trait to pass on to the ol' progeny."
p198
aS"People don't get fat because they're depressed, even if they get depressed because they're fat. They get fat because they won't stop fucking eating."
p199
aS"If a woman is fat but loves the way she looks and is proud of her appearance, well, she's still fat. If a woman is pretty but thinks she's ugly, well, she's still pretty."
p200
aS"As a woman, you feel that you should be worshipped for possessing a vagina. but seeing you're so lazy and greedy, you became fat and hideous. therefore no desirable men actually want to go near your rancid pussy."
p201
aS'While I believe human beings are born equal, I believe some cultures to be inherently better than others.'
p202
aS"I'm tired of stores no longer carrying anything in size Small. Also, my small tshirt should cost less than the XXL version of the same shirt."
p203
aS'Fat people and smokers need to pay higher health insurance premiums. Put a price tag on it and obesity rate will go down from the alarming 30%.'
p204
aS'All fat black girls travel around in a pack and are 5x louder than everyone else.'
p205
aS'#We should not be making it easier to be hugely overweight.'
p206
aS"PEOPLE WANNA DO ANYTHING TO LOSE WEIGHT THAT DOESN'T INVOLVE ACTUALLY WORKING HARD OR REGULAR EXERCISE!"
p207
aS'Waiting for r/BODYACCEPTANCE to bring a hypocritical shitstorm this way'
p208
aS"Fat People have come up and been angry with me because I am skinny and they aren't. I remain as active as I can and work 55 hours a week"
p209
aVBut what about fat hate? I'm confused about this one. Is it a new thing? What's wrong with fat hate? (honest question)
p210
asS'eugenics'
p211
(lp212
S'There should be a skill-testing question to breed.'
p213
aS'If there ever was a validation for eugenics and the Idiocracy that America is turning into, Michelle Bachmann is it.'
p214
aS'If your heart breaks with every orphan, support eugenics and sterilization'
p215
aS"Smart people are just as capable of manual labour, if not moreso, because it'll be easier for them to figure out how to improve the process."
p216
aS'He would be better off campaigning with the rest of us to reinstate positive eugenics along with IQ and literacy testing as a prerequisite for citizenship and civil rights privileges.'
p217
aS'You know this is a horrible thing to say, but someone needs to say it. Everyone should be fixed, vasectomy or tubal. Only when you earn enough to have it reversed should you be allowed to reproduce.'
p218
aVSince when has eugenics promoted killing people? The Nazis gave Eugenics a bad name, but the term eugenics does not imply anything forced! Eugenics is not crazy.
p219
aVIt's hard for some people to consider the gray areas of science, but parts of the Nazi eugenic agenda actually made sense; the concept of using science to improve human health and intelligence is a noble goal, but they botched the implementation so badly that nobody can say anything good about eugenics anymore.
p220
asS'Affirmative Action'
p221
(lp222
S'It has become standard in America that if you do not have enough black people succeeding it is YOUR fault. Not theirs, even for things that are completely race independant like graduating from college.'
p223
asS'blowjob'
p224
(lp225
S'They probably charge $2,000 for a blowjob though.'
p226
asS'masturbate'
p227
(lp228
S"It's unsanitary to masturbate with vegetables."
p229
asS'fetish'
p230
(lp231
S"It's certainly rude, but there is nothing inappropriate about not wanting to date a black man. Or a white man. Or a man with a penis that too large or too small to be enjoyable. Or only liking Asian girls."
p232
asS'african american'
p233
(lp234
S'I have a fantasy where I am a white person who emigrated from south africa to america and I demand people refer to me as african american'
p235
asS'emotion'
p236
(lp237
S"But it's interesting to me that you're so angry. This is a simple discussion but you're reacting emotionally instead of actually debating. Sarcasm and rhetoric aren't really that useful for coming to a common ground."
p238
asS'evolution'
p239
(lp240
S'Congrats for being a great example on how through evolution some members of species die out while others thrive. Real shame for your kids though.'
p241
aS"You don't have to be attracted to a wet hole to deposit your semen. Evolution didn't need for a vagina to be attractive."
p242
aS'I like big butts and I cannot lie, but is there some evolutionary reason as to why?'
p243
aS"Women have naturally evolved a way to filter men of higher status that they should be with from ones of low status that they shouldn't, and if guys have somehow figured out a 'hack' for this, then it renders that system useless. And that's not a good thing for them."
p244
asS'equality'
p245
(lp246
S"The reason equality doesn't exist has little to do with feminists and a lot to do with women."
p247
asS'white people'
p248
(lp249
S'You know, this white people as the privileged class joke is pretty old.'
p250
aVwhite people can't get into the victimhood market - it's already too saturated
p251
asS'gender'
p252
(lp253
S'Stop being your gender/sexuality/race/etc and start being a person.'
p254
asS'free speech '
p255
(lp256
S"Lynching takes many forms. The silencing of ideas is no less barbaric than the silencing of lives. You may not understand this. I wouldn't be surprised. No lynchmob understands the severity of their crimes against humanity. They are blinded by their hate. You are blinded by your hate."
p257
asS'gun'
p258
(lp259
S'honestly, anymore I could give a fuck if someone pulled out a gun and blew one of these fuckers heads off.'
p260
aS'Maybe if youre walking to your car at night and 3 black people are approaching, you get your gun ready b/c statistically, you are more likely to be attacked by black people than non blacks. Not being racist, just trying to say the truth that people are afraid to say.'
p261
asS'4chan'
p262
(lp263
S'4chan is in some sense a rebuttal to feminism.'
p264
aS"I have always had respect for 4chan because much of them have respect for men's rights and actually stand up for issues (albeit not always in the most 'civil' of matters). I even remember reading a very interesting article not too long ago about how 4chan is in some sense a rebuttal to feminism due to the increase in angry young males who don't know where to turn after the feminism plague infected them."
p265
asS'race'
p266
(lp267
S'Profiling works, and proper profiling includes race.'
p268
aS'Discrimination based on race = unfunny  Jokes based on racial discrimination = funny'
p269
aS'i never said anything about melatonin, because race is obviously comprised of more than that'
p270
asS'conservatism'
p271
(lp272
S'Conservatism is by definition reality-based.'
p273
asVlesbians
p274
(lp275
S" I don't wanna watch two gay guys going at it. To me, it's kinda gross. I do enjoy two women though. Nothing hypocritical about that."
p276
asVlongloop
p277
(lp278
S'.in 2 hours longloop'
p279
asS'pussy cartel'
p280
(lp281
S'Crusaders against prostitution do not care about the safety of women. They only care about maintaining the pussy cartel.'
p282
asS'old'
p283
(lp284
S'When you hit a certain age, you should have to retake the driving test. Old people are awful drivers.'
p285
aS'Old enough for the fire-house pole old enough for my meat pole.'
p286
aS"Most women don't progress past a mental age of 12 years old"
p287
aS"that's what i love about these highschool girls. i keep getting older, but they stay the same age."
p288
asS'female'
p289
(lp290
S"Oh you're a female? Gonewild Post."
p291
aS"Female posters are considered a valued commodity, while male posters are all declared 'losers', 'creeps', 'pervs', 'nerds', 'neck-beards', 'forever alone', etc. Men seem far more welcoming and supporting to women in male dominated fields than women are to men."
p292
aS"I personally love the female body and don't like things that disrupt my view of it"
p293
aS"Female Redditors account for about 20% of the site's userbase. Unless you're talking metaphorically, in which case the number is more like 90%."
p294
aS"Knowing the female tendency for rape fantasies (read any romance paperback) I've often wondered if their constant attacks of 'all men are rapists' is projection resulting from their forbidden lusts."
p295
aS'YEs, all females, except a few cases with mental issues, are automatically bisexual.'
p296
aS'Women are bitches and hoes, coming from a female.'
p297
aS"Not attracted to your female friend? She's either ugly or you're gay."
p298
aS'Most female insecurities come from other females, not men.'
p299
aS'Logic is not as much a part of the general female condition as it is of the general male condition.'
p300
aS"But why is it that females find the need to declare their gender? You don't see males doing this to the same extent, or at all."
p301
aVI don't care what gender issues someone has, a traditional 'gents' bathroom insulates the vast majority of men from having to wade through a queuing horde of females to use the facilities
p302
aVI do think that on average, females respond better to emotion and males to logic. Mind you, I think both attributes are important, but I also think libertarian schools of thought cater more strongly to logic, not emotion.
p303
asS'stereotype'
p304
(lp305
S"Wait. You're actually telling me you think there is a stereotype that  only white and asian kids go to college? I don't even know what to say  to this. My school has more blacks than asians."
p306
asS'porn'
p307
(lp308
S"For years people tried to make the claim that those who listened to death metal music or played violent video games would go out and kill people. I think we've discovered that that isn't true. It's the same type of connection here: that if one looks at child porn then they must molest kids."
p309
asS'welfare'
p310
(lp311
S"If people, whether they be white, black, hispanic, or any other race are unwilling to work then I'm sorry bud, that's not my problem. IMO there are a few reasons why people who are on welfare don't get jobs. They don't want to. It's too easy to just take the check. The are unpresentable. Tattoos, clothes, piercings, language"
p312
aS"I realize that it is possible to be on welfare and not be cheating the system, but I've yet to hear or see a concrete example of this."
p313
aS"it's simple. If you want to vote, then you have to get off welfare. It's supposed to be a safety net, not a hammock. But as long as politicians can court the vote by giving away other people's money, there will be people willing to take it. If giving away bread and circuses doesn't get you votes, then it would stop."
p314
asS'age of consent'
p315
(lp316
S"Puberty is nature's age of consent."
p317
asS'sex'
p318
(lp319
S"You can have class, or you can have sex, you can't have both... at least not if the sex is done right."
p320
aS"Roses are red, violets are blue. We're having sex cuz I'm stronger than you."
p321
aS"Does it matter if animals can't consent to sex with humans?"
p322
aS'In exchange for sex women hope to get lots of things from men.'
p323
aS'If sex is great exercise, then why are there still fat sluts?'
p324
aS"Women's control over sex is one of the many ways in which men are discriminated against in society at large."
p325
aS"Why is the idea that women are giving something to men when they have sex so widespread? Why is it almost always men who propose, men who pay for drinks and dates, men who approach etc? You know it as well as I do that women control sex. I don't understand why you are debating the point."
p326
aS"to all of you putting the Onus on men as though its their shyness that's the problem. Remember Women control the access and make the decisions and on average are actually having sex more often than the population of males."
p327
aS'Withholding sex is borderline abusive.'
p328
aS"When a dude tells a story about the time he got laid, it's a predatory  affair. When a woman tells it, she's choosing the best tomato from a  bucket. There's no doubt she's going to get laid, it's just who she  chooses."
p329
asS'culture'
p330
(lp331
S'While I believe human beings are born equal, I believe some cultures to be inherently better than others.'
p332
aS'Some cultures are objectively worse than others.'
p333
asS'college'
p334
(lp335
S'Communications is a major for slutty college broads who want to party. Not to stereotype or anything...'
p336
aS"Most girls will be delighted to talk to a guy who has the balls to start a conversation with a cutie. If they aren't delighted, it's no fault of yours. They are 'weird' and not worth your time anyways. Most of the 'game' I run is actually on a college campus that I'm not a student at."
p337
aS'Swedish college girls now twice as slutty as in 2001'
p338
aS"I still look down on everyone that doesn't have a college degree. I try not to, but I still do."
p339
asS'false rape accusations'
p340
(lp341
S"Why do you assume punishing false accusations won't stop people from making false accusations, or at least making some people think twice? It seems that without punishment, there's nothing to lose and everything to gain."
p342
asS'hoes'
p343
(lp344
S'Women are bitches and hoes, coming from a female.'
p345
asS'girl'
p346
(lp347
S"It's easy to tell a girl you are rich. Just wear branded stuff all the time. They see your brand before they even see your face."
p348
aS'Also, you are a girl. Can I see your boobs? :)'
p349
aS' Go to dinner, chew with you mouth closed, laugh at all her jokes.'
p350
aS"You obviously aren't facebook friends with a hot girl just to look at her pictures. People may find this creepy, but everyone knows they do it."
p351
aS'A girl who smokes is a guaranteed swallower.'
p352
aS'just wait. date a girl for an extended period of time and choking/slapping the whore/bitch will become as natural as taking a dump'
p353
aS'My opinion? Never rape a girl like that: she would brag to everyone.'
p354
aS'Just joking girl, enjoy your body while it still gets you a free self-esteem boost!'
p355
aS"Why do girls think that getting a guy's number is such an achievement? Go up to any guy ever and ask for his number. Seriously. Tomorrow. Just try it. Double dare you."
p356
aS'What does an attractive 19 year old girl need to make 20 grand a month? Oh right, she just needs to get naked. IS THERE NO JUSTICE IN THE WORLD?'
p357
aS"lets say I see a cute girl and wanna talk to her; how can I tell if she's on her period?"
p358
aS"i would enjoy seeing the girl i'm about to get paid to bang cry because of what she's doing"
p359
aS'there was once a girl in highschool who faked getting raped in the bathroom for attention because she was a scabby titted birdnest haired bugeyed loser'
p360
aS'Find a girl who wants nothing to do with you. That night, furiously masterbate thinking of her. The next day, tell her.'
p361
asS'child porn'
p362
(lp363
S'Personally, I prefer that pedophiles jerk off to pictures of kids on the internet rather than going out and molesting them.'
p364
aS"I totally understand the argument, and I certainly believe that the people who create child pornography should be punished. But the ones who consume it aren't necessarily doing physical harm to children. Sure, their demand drives production, but I think most pedophiles who record their actions do it for themselves, and sharing is more of an afterthought, unless there's money involved."
p365
aS'were people able to trade Child pornography with impunity? yes? then freedom fighters in tibet were safe. whistleblowers were safe. '
p366
asS'creep'
p367
(lp368
S"Creep shaming is probably one of the most insidious and anti-equality things you can do. The ability to label men as 'creepy' is just one privilege that women enjoy."
p369
aS"Just like it's not acceptable to label a woman a slut because you don't like what she's wearing, it's not acceptable to label a man a creep because he exercised free speech in a nonthreatening way."
p370
aS'What makes him creepy? The fact that he is a man? Or the fact that maybe, just maybe, our society is so bigoted against men that their very presence in a female dominated area is viewed with suspicion?'
p371
aS'You realize girls like attention from creepy guys, right?'
p372
asS'canada'
p373
(lp374
S'racism is alive and well in Canada, and the victims are Caucasians. Aboriginals sure love their double standards and free things'
p375
asS'rapist'
p376
(lp377
S"It's kind of fucked up that our culture has such an unusual amount of hatred towards rapists."
p378
aS"On another note. It's kind of fucked up that our culture has such an unusual amount of hatred towards rapists. Why is it that people feel the need to say things like this about rapists but not about murderers? There are crimes that are just as bad/worse than rape, but you don't see the same kind of posturing relative to those."
p379
asS'ephebophile'
p380
(lp381
S'I said that I would watch 14-year-olds fuck and the moral majority took me by storm. Maybe instead of blindly downvoting ideas that our society finds disgusting, you could explain to me in what way I was not adding to this discussion.'
p382
aS"Wait until you get more facts, then. If he had videos of 17-year-old girls then stand by him and don't let his friendship go. If it was 10-year-olds, then you should probably be stern with him about that kind of stuff."
p383
asS'somethingawful'
p384
(lp385
S"Slander and libel though... Somethingaweful doesn't give a shit about kids. THEY ARE A COMPETING WEBSITE."
p386
asS'religion'
p387
(lp388
S'Religion is nothing but bullshit.'
p389
aS'Pretty much all religion are plaques to humanity.'
p390
aVReligion=Less intelligence=more animalistic behavior=less evolved compared to the rest of the species since we're right now the most intelligent.
p391
aS'The sooner all religion is diffused into a benign nothingness, the better for all civilization.'
p392
aS"A 'benign religion'? You mean, like, happy cancer?"
p393
aS'Religion and peace cannot co-habit the same space & time.'
p394
asS'market'
p395
(lp396
S"The USA, 1 year into Ron Paul's presidency, will have universal health care due to 'free market' forces."
p397
asS'internet'
p398
(lp399
S"ALL GIRLS ON THE INTERNET ARE FATASSES WITH AN ADAM'S APPLE"
p400
aS'Tell Professor Loser McQueerface that the internet says he can suck it.'
p401
aS'Dear women, if you cheat on us while we are deployed, and get pregnant, we will send your picture to as many of our friends as possible, and post in on the internet.'
p402
aS"I'm tired of the internet making me feel worthless just because I was born with a dick and not a vagina, it's even making me misogynistic."
p403
aS"Black people don't know how to use the internet."
p404
aS"I didn't realize that Mexicans had the internet yet."
p405
aS'You own a vagina, with all the associated privileges and benefits that go along with it, and trolling an internet forum is all you can do?'
p406
aS'Seriously, is everyone here new to the internet or something?'
p407
aS'I have to be proper and nice all day long at work and there are consequences for being a dick in real life. I need an outlet somewhere and the internet is a perfect place.'
p408
aS"I don't know. Call me immature, but I don't think I'm ever going to get bored of being a dick anonymously. If you're going to go out on a limb and post pictures of yourself on the internet, you're free game. You don't have to put pictures online. It's your choice. And if you are fat or stupid looking, I'm going to call you out for my own enjoyment."
p409
asS'silly'
p410
(lp411
S'Women are silly like that'
p412
asS'misandry'
p413
(lp414
S'misandry apparently dont real'
p415
aVA great example of institutional misandry is the school system. Boys are punished for normal male behavior like the inability to sit still (which, like any behavior, may be found in both boys and girls, but is more typical in boys).
p416
aS"The misandry bubble keeps on poppin'."
p417
aS'As a feminist who is a dude I dislike misandrists.'
p418
aS'so many misandrists parade around under the protective title of feminist'
p419
asS'discrimination'
p420
(lp421
S"the CRA does force participation  by, for example, making  discriminatory hiring illegal. Now blacks either have a place in your  life or your breaking the law. That's forcing participation."
p422
aS"I would add also that refusal to hire blacks only excommunicates them  from the community if it's across the board and even then living in  their own relatively separate, but proximate, community can lead to it's  own integration."
p423
aS"Easiest way to tell if something qualifies as discrimination: flip the roles. I wonder what kind of a reaction a 'No Girls Allowed' science class would receive."
p424
aS"I guarantee that a 'minority' woman at my work could make shit up and  get me fired without question and it would not work the same the other  way around."
p425
asS'evopsych'
p426
(lp427
S'I think perfect punctuation makes sense from an evolutionary standpoint - it gives the impression of intelligence.'
p428
aS"Looks like most of the girls are postpubescent, and men are biologically hardwired to find the traits of physical maturity desirable. Just because society stigmatizes relations with them doesn't mean men are going to defy millions if years of evolutionary instincts."
p429
aS"If one woman is having sex with all the men, she's monopolizing the gene pool -- she's decreasing the chance of other women having sex with fit men. And these other women want a shot too. So women themselves have evolved to dislike other women having sex with lots of men."
p430
aS"When a sexually promiscuous female has offspring, the male can't be sure that the offspring is his. As a result, males try to distance themselves from sluts in public so that they don't risk having to raise another male's child."
p431
aS'Women are pre-programmed to be more selective on who they mate with so that their offspring has a better chance to survive, while Men are pre-programmed to fuck anything with a heartbeat and a hole.'
p432
aS"Most slut shamers are women. They're offering up what they hope is a rare commodity: Sex. In exchange for sex they hope to get lots of things from men. A relationship, stuff, whatever. Sluts, however, just give it away for the fun of it. It's not a tool to them, it's just something fun to do with someone else."
p433
aS'If you want to talk about evolution, a true pedophile is more probable to take care, spend time and protect children than a non-pedophile.'
p434
aS'basically when you are in a relationship you give off subtle signals or pheromones so that girls can pick up on subconsciously and they are attracted to you more. Something with primeval need to find a partner that will protect and take care of them and since they know that you are with someone you now appear to be more acceptable to fit that protection/survival need then when you are single and have no one.'
p435
aS"Women - all women - have no choice but to feel attracted to muscular guys. It's a basic fucking deduction you can make after spending 2 seconds thinking about evolution."
p436
aS"If we consider that the rape WILL happen, then girls could lower their value to the rapist by dressing down a bit. Survival of the fittest, selfish human nature, whatever. Someone else will get raped, and ultimately that is in this person's best interest."
p437
aS'I like big butts and I cannot lie, but is there some evolutionary reason as to why?'
p438
aS"They're fertile, you're attracted. Pretty simple"
p439
aVWoman that could be considered attractive by today's standards were whores during that period. Thus it can be implied that all beautiful women descend from hookers.
p440
asS'reddit'
p441
(lp442
S"If I was standing next to an Ethiopian, I more than likely wouldn't make  any starvation jokes. But on Reddit, of all places, I'll make jokes  about what I want."
p443
aS"I personally think Reddit would be better overall without mods. There really is no point to them. I can't see spam making it to the top because it can just get downvoted. Mods almost always get little power trips and like to make rules."
p444
aVReddit isn't supposed to be the most equal and fair community. Reddit isn't supposed to save the most possible amount of people from suffering. If you can't deal with Reddit and don't want to try, go away. It's not like anybody here is forcing you to be on this website. We are not here to care about your tiny or big personal problems. Welcome to the Internet.
p445
aVReddit gold buyers saved Reddit. Reddit destroyed PIPA and SOPA, saving the internet. So by transitivity, Reddit Gold Membres saved the internet
p446
aS"Reddit users don't like reposts, we like fresh content."
p447
aS'I have always felt like Reddit was much more self-conscious about its importance than any publication not created in the 20th century.'
p448
asS'profiling'
p449
(lp450
S'Profiling works, and proper profiling includes race.'
p451
asS'christian'
p452
(lp453
S'Have you tried not being a Christian?'
p454
aS"Quite a few Christians believe they can do whatever the fuck they want and say 'Jesus will save me'"
p455
aS'You believe in a guy who created himself so that he could sacrifice himself to himself in order to redeem the sins that he created himself. Nobody gives a flying fuck what you think.'
p456
aS"I'm sorry, Christians. I'm sorry that your theology has been shown to be wrong again and again by the discoveries made by scientists. I am so sorry for the embarrassment this causes you. Let me apologize for challenging your world view- it is so incredibly arrogant of me to try to replace your dogmatic and infallible version of reality with my own factually based, but incomplete, scientific description."
p457
aS"Christians say we're collapsing, crumbling, and our arguments are weak and shit. There's a goddamn revolution afoot, and we're it's fuel!"
p458
aS"When we're bashing on christians, represent them with stereotypes, it's all good. But if we bash on muslims, and do the same, OMG NO, THATS RACIST, THATS NOT COOL."
p459
asS'child support'
p460
(lp461
S"If you can't support your child without receiving child support, then you don't deserve full custody."
p462
asS'decency'
p463
(lp464
S"'human fucking decency' has nothing to do with humor"
p465
asS'muslim'
p466
(lp467
S"When we're bashing on christians, represent them with stereotypes, it's all good. But if we bash on muslims, and do the same, OMG NO, THATS RACIST, THATS NOT COOL."
p468
asS'boobs'
p469
(lp470
S"Girls with huge boobs will never know if they're really interesting."
p471
aS'Seriously though, who the hell puts there boobs on show and gets offended when people look at them, come on.'
p472
aS'Dental Hygienists, are you aware of how happy you are making me with your boobs constantly bumping into the side of my face?'
p473
aS'Would a shopkeep put his best wares(boobs) in the window, then complain when people observe them?'
p474
aS'Talking about her boobs != disrespect her as human being.'
p475
asS'pua'
p476
(lp477
S'The PUA community is not inherently misogynistic. Misogyny is the hatred of women, and I think we can all agree that the last thing the PUA community hates, is women.'
p478
aS'I remember hanging out with one PUA who made out with a girl by only barking like a seal and NOT SAYING A SINGLE WORD'
p479
aS"Many PUA guys will entertain, neg, do kino all the right stuff, but don't close because it is not what they expect and not part of their reality that they project."
p480
aS"TIL: If you say 'neg her' really fast in a bar people will think you're a racist."
p481
aS'A neg is when one brings attention to and feigns subtle disappointment over a slight flaw of a desired female to win her attentions through psychological manipulation of her esteem and her subsequent desire for redemption.'
p482
aS"On a side note, approval shares a close link with desire. Women have evolved to subconsciously link the two as a means of quickly determining the quality of a potential mate. The more readily you give a woman your approval, the less she'll think of you."
p483
aS'your primary girlfriend - best not to lie to her, at least do not tell her you are seeing other women (no girl want to hear this), but do not tell her you two are exclusive either. Keep vague, if she asks, avoid answering. Typically she will stick around 2-3 months with you until she asks the ultimate question: me or them.'
p484
aS"Interestingly enough, the PUA community generally has more true respect for women than most men do. They're just better at sifting through the chaff and letting the detritus fall away so they can find a woman that they actually like. Maybe if you had some respect, you'd recognize that it's not a woman's fault that she likes to have sex. And so what if she does anyway, don't you enjoy it?"
p485
asS'louis ck'
p486
(lp487
S'Thank you Louis C.K. for the best insult in my artillery. Looking back I feel a little guilty, not for yelling profanities at an elderly lady, but for leaving a cart full of shit in the aisle. I hate inconveniencing people like that.'
p488
asS'reverse bigotry'
p489
(lp490
S"if there was a male only' tournament, you wouldn't hear the end of it from the females. "
p491
aS"if there was a male only' tournament, you wouldn't hear the end of it from the females."
p492
asS'knock knock'
p493
(lp494
S"who's there"
p495
asS'french'
p496
(lp497
S'I use french to woo the girlz'
p498
asS'censorship'
p499
(lp500
S'The silencing of ideas is no less barbaric than the silencing of lives.'
p501
asS'mangina'
p502
(lp503
S"I'm not the monster society wants me to be. So I'm neither mangina nor beast. I'm something new entirely. With my own set of rules. I'm male. Boo."
p504
aS"'mangina' describes a set of political thoughts and behaviours"
p505
asS'kitchen'
p506
(lp507
S"If Edward Cullen was a kitchen set it'd make more sense"
p508
asS'molestation'
p509
(lp510
S"I've had several relationships where we used the term 'molest' casually"
p511
asVforeskin
p512
(lp513
S'I would rather lose a finger than my foreskin.'
p514
asS'sister'
p515
(lp516
S'thats my excuse for hitting my sister lol'
p517
aS"If your little sister yells to get stuff, show her who's boss and put her in her place... controlled violence is sometimes a necessity."
p518
asS'misogyny'
p519
(lp520
S"'Misogyny' is throwing acid in the face of a woman because she dared to talk to a male outside, or torturing women, or otherwise seeking to actively hurt or invalidate women."
p521
aS'Not misogyny: Bad taste jokes about rape/abuse/etc. Logic. Counterarguments. Disagreements. Harsh language. Saying cunt. Saying bitch. Calling women names. Being pro-life. Calling every woman who accuses a man of rape a liar.'
p522
aS"There wouldn't be so much sexism and misogyny if women stopped calling everyone sexists and misogynists."
p523
asS'daughter'
p524
(lp525
S'My biggest fear of having a daughter is that I would be attracted to her.'
p526
asS'joke'
p527
(lp528
S'I have a real problem with people who try to demonize jokes of any type, probably partly because I intend to write jokes as a living'
p529
aS"If I was standing next to an Ethiopian, I more than likely wouldn't make  any starvation jokes. But on Reddit, of all places, I'll make jokes  about what I want."
p530
asS'blackface'
p531
(lp532
S'The Big Bang Theory is the nerd equivalent of blackface'
p533
aS'I still laugh at people who are easily offended by something made 70 years ago'
p534
asS'assault'
p535
(lp536
S"Honestly, being real, just getting a jab to the face isn't going to kill you, but it'll shut you up. Even if the guy gives her the left cross and puts her fucking lights out, it's not like he's kicking her head in or anything."
p537
asVtimer
p538
(lp539
S'.in 1 minute PONY SHOULD PONY PONY'
p540
asS'minorities'
p541
(lp542
S'The main reason certain minorities are statistically less successful is that it is looked poorly upon by others in that community to act intelligent and care about education and bettering yourself. Not because other races, popularly white people, are holding them back.'
p543
aS"If you really want to help, come down and tell them what the rest of the country really thinks of them, how they see them as leeches on society and non-contributors. If they heard it from a white guy, maybe they'd believe you."
p544
asS'gun-control'
p545
(lp546
S'the problem is if you ban handguns, you will only be banning them from law-abiding citizens. Criminals will do what criminals always do- break the law. They will then own a gun illegally. This creates the situation where the only ones with weapons are the criminals.'
p547
asS'gww'
p548
(lp549
S'words words words words words words words words words words words words words words words words words words words words words words words words words words words words words words words words words words words words words words words words words words'
p550
asVtransphobia
p551
(lp552
S'I think there is a good discussion on whether perceived transphobia equals actual intended transphobia. Whether that discussion can happen here is unlikely. Too many people have let emotions hijack their higher reasoning.'
p553
asS'logic'
p554
(lp555
S'Logic is not as much a part of the general female condition as it is of the general male condition.'
p556
aS"Here's something you shouldn't forget; men and women are programmed differently. Men think logically, much more so than women. This isn't merely a result of the culture."
p557
asS'slut shaming'
p558
(lp559
S' In this society there is almost no legal ramification for breaking a commitment that you made to somebody.    If she decided to ignore a monogamous relationship, fuck someone else  and expose her faithful partner to STDs, (not to mention emotional  abuse) then she deserves public shaming.'
p560
asS'double standard'
p561
(lp562
S"Girl puts hands on fiance's penis : teehee i'm being sexy and cute  Guy puts hands on fiance's boob : STOP MOLESTING ME YOU SEX FIEND"
p563
asS'friendzone'
p564
(lp565
S"You are only friend zoned if you keep being her friend after rejection, or she keeps being your friend. Say fuck that and I'd rather not talk to you at all, problemo solvedo"
p566
aS"It's not the friendzone until she reported you for rape."
p567
aS"When a woman treats you like her boyfriend except the only thing missing is sex, it's gets rough after awhile when you have feelings for her."
p568
aS"To be fair when people talk about the 'dreaded friend zone' they mean when you are in love with a girl and the girl knows and yet will use you as a boyfriend except for the romantic/sexual parts."
p569
aS'Generally speaking, friendzone is not something someone practicing seduction has to deal with. It is a symptom of being un-attractive.'
p570
asS'bachman'
p571
(lp572
S'If there ever was a validation for eugenics and the Idiocracy that America is turning into, Michelle Bachmann is it.'
p573
asVgenderless bathroom
p574
(lp575
S'If I were to think of a list of things that would increase the amount of rapes, assaults and abuses involved with going into a bathroom, having a genderless bathroom is pretty near the top of the list.'
p576
asS'humour'
p577
(lp578
S'What benefit does this have that outweighs my laughter?'
p579
aS"'human fucking decency' has nothing to do with humor"
p580
asS'drunk'
p581
(lp582
S"If a drunk chick you knew asked you to 'stay over' what would you assume she wanted? I know there's a possibility that maybe she just wanted her husband's friend to sleep on their couch but I really doubt it."
p583
aS'Friendly is not the same as wanting to fuck. Move on if she seems only friendly. Cues: not sitting very close, no touching, unresponsive to your touching, not drunk.'
p584
aS"I just don't think we can count on women. They have drunk fully of the man-hating poison and their selfishness and emotionalism is ruling their decisions. Women have a genetic imperative to feel special, get resources, and get access to alpha male penises. All three needs are fulfilled by Feminism"
p585
asS'pussy'
p586
(lp587
S"Pussy is the most expensive thing you'll ever eat."
p588
aS'If you own a pussy, you can get a decent man to do anything for you.'
p589
aS'if get(pussy) then fuck(pussy) else kill(pussy)'
p590
aS"I guess that's one way of looking at it, but think about it this way: If I bake a pie, and this is a really good pie, and I walk around town just holding the pie, everybody's seeing it and smelling it, getting a good look at the pie....should I get mad if someone eventually asks me if they can have a slice of pie? Eventually someone is even gonna ask,"
p591
asVneckbeard
p592
(lp593
S"Neckbeard has lost all meaning. It used to mean a man who had hair exclusively on his neck. Then it meant a man who had a beard at all. Now it just seems to be a feminist hate term for any men who don't genuflect at the altar of female supremacy."
p594
asS'intellectual'
p595
(lp596
S"It's almost impossible to find a woman with depth and true insight on intellectual issues."
p597
aS'This entire conversation has proven once again that a MAN is more intellectual, more sophisticated, and more of an all-around BETTER PERSON than you.'
p598
asS'gypsies'
p599
(lp600
S'Gypsies are criminals and live like beasts.'
p601
aS"They don't pay any taxes, yet insist on having the best healthcare, and any other benefits they want, by threatening the staff of the hospital with violence. They'll move into any bit of land or lay-by they want, and make shit of it, dumping rubbish, leaving burnt out cars etc. Basically, prime candidates for ethnic cleansing."
p602
aS'Gypsies: The one case where racism is right'
p603
asVethnocentrism
p604
(lp605
S"Religion=Less intelligence=more animalistic behavior=less evolved compared to the rest of the species since we're right now the most intelligent."
p606
asVhomosexuality
p607
(lp608
S" I don't wanna watch two gay guys going at it. To me, it's kinda gross. I do enjoy two women though. Nothing hypocritical about that."
p609
asVminimum wage
p610
(lp611
S"If a large number of people were pais below mininum wage, wouldn't the cost of living just go down? It'd have to."
p612
asS'bitch'
p613
(lp614
S"See, women think that when men say the word 'bitch' we're generalizing. We're really not. We actually are just talking about the 'BITCHES'. Not all women."
p615
aS"Don't marry a heartless, evil bitch that refuses to help with family expenses and gets her relationship advice from other heartless, evil bitches"
p616
aS'just wait. date a girl for an extended period of time and choking/slapping the whore/bitch will become as natural as taking a dump'
p617
aS'you are made of bitch'
p618
aS"Bitch won't get on my dick, FUCK DAT"
p619
aS'I give up my seat to a woman if she deserves it. But, as soon as you feel entitled to the seat I say fuck off bitch.'
p620
aS'this is the way of women, as far as I have experienced in life...Bitch until you get what you want, think of something else you want, and then bitch until you get that, in perpetuity.'
p621
aS"'Be yourself.' The argument girls have when they try to justify being a bitch."
p622
aS"She's a bitch. A shallow shallow bitch."
p623
aS"It doesn't even have to be a prostitute either. Guys always have to pay for sex one way or another."
p624
aS"Don't call women bitches. Because bitches are dogs. And dogs are loyal."
p625
aS'The use of bitch refers to the behavior of a particular woman, not necessarily as some quality of women.'
p626
asS'homeless'
p627
(lp628
S'I tried to give food to some beggar one time, he just looked at me with assassin eyes and threw the food away.  Fuck that shit, never giving anyone anything again.'
p629
aS'There are a number of beggars and homeless who are so because they conscientiously will not accept any responsibility'
p630
asS'linux'
p631
(lp632
S'the whole Windows/Mac/Linux thing is just as bad as White/Black/Brown/Yellow'
p633
asS'hitler'
p634
(lp635
S'Leftists, especially among their actual jewish element, hate logical, measured discourse because in such situations, they always lose. Especially when dealing with us, because, as has often been said, there is no rational argument against White Nationalism.'
p636
asS'jews'
p637
(lp638
S"It's not simply 'I dislike Jews for being Jewish'. I dislike their policies. They are bad for the US."
p639
aS'b/c jews run america'
p640
aS'antisemitism is just a word for desperate israelis'
p641
aS'Being racist is unacceptable. Hating Jews is not being blind to the damage they inflict on the world.'
p642
asS'quit'
p643
(lp644
S'/me quits'
p645
asS'leftism'
p646
(lp647
S"Leftism's whole point is to deny reality and wish for impossible dreams. Conservatism and libertarianism, however, are pragmatic."
p648
asS'jew'
p649
(lp650
S'If Ron Paul becomes President, there will be a real investigation of 911. That will mean the end of Israel, and every Jew in America will be dangling from a lamp post.'
p651
aS'That international jewry runs the world from behind the scenes, and that the west is a jewish banking empire and that NATO is merely the seargent at arms of international jewry and its global economic interests.'
p652
aS'With such a huge deficit, we need a Jewish president.'
p653
asS'illegal'
p654
(lp655
S'You know what should be illegal? Breeding without a license.'
p656
asS'pms'
p657
(lp658
S'PMS is like a week long day-pass for being a total bitch to society for existing.'
p659
asS'girls'
p660
(lp661
S'All fat black girls travel around in a pack and are 5x louder than everyone else.'
p662
asS'racism'
p663
(lp664
S"Why is racism a bad thing? I don't see any problem with wanting to be around your own kind. Lots of black people around means more murders, rapes, assaults and robberies etc. Have fun with that."
p665
aS"You know when most of you stupid nerdy white kids on here are in your 50's, you will look back and realise how stupid you were supporting the invasion of your own lands. You will be the oppressed minority in your own country, your own ancestral land. See what you think about it then."
p666
aS'Anti-racism is actually racist'
p667
aS'Some cultures are objectively worse than others.'
p668
aS"I think we do more harm than good trying to 'combat' racism"
p669
aS"If it's accurate, it is not racism, it's sociology."
p670
aS"It's not racist unless you truly mean it you faggot. It's the thought that counts."
p671
aS'I believe the true racists are those who get offended by jokes about race. Everyone else is obviously trying to have a simple, good laugh.'
p672
aS'Racism is just a spcific kind of stereotyping. Stereotyping is a necessity in society to quickly assess threats to property or person.'
p673
aS'When you live your life without race on your mind, you have transcended all of them: racists and non-racists.'
p674
aS"You don't understand the difference between legitimate criticism and racism, therefore you can go fuck yourself."
p675
aS'black americans can be so subtly racist and exclusive as to  presuppose that they are the biggest and most important victims of  racism, almost as if they own it. Worst is they can be the biggest proponents of racism, by insisting  on labeling themselves as different.  No one defines black people as  specifically being a black'
p676
aS"I finally understand why everyone sees so much racism in the world. They  actively look for it where previously it doesn't exist. "
p677
aS"I finally understand why everyone sees so much racism in the world. They  actively look for it where previously it doesn't exist."
p678
aS'i never said anything about melatonin, because race is obviously comprised of more than that'
p679
aS"Maybe there would be less racism if popular black culture wasn't completely centered around being a complete piece of shit worthless citizen"
p680
aS"black people, Stop accusing everyone of being racist constantly so that we don't have to walk on eggshells around you"
p681
aVIs it so wrong to want people to live in the now and ignore skin colour? We should at the very least unite to sort the Muslims out :)
p682
aVI don't think you understand how racism works. If a white person does something a black person doesn't like, that's racism.
p683
aVWe should all be able to act like adults and discuss the real issues in our society without being labeled racist and dismissed.
p684
aVMalevolence is malevolence, regardless of the target. The bigot is malevolently laughing at people they consider inferior, the person that mocks them mercilessly is...malevolently laughing at people they consider inferior.
p685
aS"Racism and pedophilia are two things that are truly exceptional among all 'mistakes' someone can make in America: they cannot be forgiven, anyone who forgives or gives a second chance risks being labelled a racist/pedophile themselves and not forgiven or not given a second chance. It's like racism against racists, aka payback."
p686
aS"I'm white. I know there is racism. Just because I'm white doesn't mean I'm ignorant to racism. That's a racist comment too."
p687
aS"I'm white. I know there is racism. Just because I'm white doesn't mean I'm ignorant to racism. That's a racist comment too. You don't fight racism with racism."
p688
asS'traditionalism'
p689
(lp690
S'If you think traditionalism is a system of male supremacy, then you have bought into the feminist bullshit that women were historically oppressed.'
p691
asS'beer'
p692
(lp693
S'I like my beer like i like my violence. Domestic.'
p694
asS'racist'
p695
(lp696
S'Idle thinking here, but there was recently a study showing everyone but africans have Neanderthal DNA... wonder if the key to maintaining empires is hidden in that part of our code? Totally not racist, but the evolutionist in me is intrigued by this.'
p697
aS"I'm not a racist man, but each one of these savages and cackling bitches is only working towards more stereotypes of their race, and are just bad people to boot."
p698
aS'It may be racist, but in this city there is a dangerous demographic responsible for much of the violence.'
p699
aS"in the United States racism is only racist if it's against black people"
p700
aS'Somehow is never occurs to people that using the term white boy in a derogatory sense might be racist.'
p701
aS"Everyone's Racist"
p702
aS"I'm Not Racist But..."
p703
aS'I\xe2\x80\x99m culturist. Black American culture sickens me, as it appears to be centered around violence, shirking education and objectifying women.'
p704
aS'Not trying to be racist (Seriously), but why do black people feel it is acceptable to be extremely loud and rude in a movie theater?'
p705
aS"...can we not throw that word around? Goddamn am I sick of the word 'racist'."
p706
aS"Everyone's so scared of being racist that we think it's offensive to call black people black."
p707
aS'I have no problem with black people, but black culture in the United States is rude, violent, sexist and causing black people 10x more problems then their skin color.'
p708
aS'Anti-racism is actually racist'
p709
aS'Some cultures are objectively worse than others.'
p710
aS"Uh... if 100% of the Mexican kids in the town were stupid, it's not racist, just observant."
p711
aS'The main reason certain minorities are statistically less successful is that it is looked poorly upon by others in that community to act intelligent and care about education and bettering yourself. Not because other races, popularly white people, are holding them back.'
p712
aS"If it's accurate, it is not racism, it's sociology."
p713
aS"I'm not being racist, I'm being realistic. Comon fucking misconception."
p714
aS"I was just pointing out to my friend how awesome it is that there's so much white guilt going around that any time a non-minority points out a bullshit thing that minorities are doing they're considered racists."
p715
aS'The charges of being condescending or racist are not relevant to the validity of an argument.'
p716
aS"i am a racist, but it's because I'm well informed "
p717
aS'I try so hard not to be racist...I know its wrong...but its becoming increasingly tough after seeing all these beat downs on white people by black kids happening.'
p718
aS"Dear black people,Stop accusing everyone of being racist constantly so that we don't have to walk on eggshells around you."
p719
aVWe should all be able to act like adults and discuss the real issues in our society without being labeled racist and dismissed.
p720
aVEveryone understands poor people. We have acknowledged it. Slavery is wrong. Slaves never had wealth here. Native Americans had wealth here and now we pay them as an apology. Native Africans had wealth, but it was over in Africa. That's where our apology money should go. Lingering on the past gets us nowhere good.
p721
aS'Being racist is unacceptable. Hating Jews is not being blind to the damage they inflict on the world.'
p722
aS"The only thing that's racist is treating people differently based on their race - and this includes the act of being extra careful around minorities to not appear racist. This is racist behavior."
p723
aS"As a white guy who isn't racist to anyone, I feel like I'm being punished for what other white people did to non whites."
p724
aS"You can't say fuck all without offending someone or being labelled as racist."
p725
asS'victim blaming'
p726
(lp727
S'In the world of feminism, responsibility and accountability are victim blaming.'
p728
asS'privilege'
p729
(lp730
S'You know, this white people as the privileged class joke is pretty old.'
p731
aS'Open your eyes and see that the most privileged people on this earth are white female Americans.'
p732
aS"The arguments about privilege are silly to me. After all, the fight takes place over the internet. And in my opinion, if you have an internet connection and a computer you're one of the most 'privileged' people in the world."
p733
aS"I like to punch rich kids that talk about white privilege like it's a real thing."
p734
aS"The thing is, there is male privilege in our society. There's also female privilege, white privilege, black privilege, Asian privilege, handicap privilege, etc, etc, etc -- but that doesn't make male privilege go away -- and you have no right to make me feel bad about something I can't really change."
p735
asS'music'
p736
(lp737
S"As far as I'm concerned there are two great musical storytellers in American history:  Bob Dylan and the Mighty Mighty Bosstones.  Nobody else even comes close."
p738
asS'white'
p739
(lp740
S'Somehow is never occurs to people that using the term white boy in a derogatory sense might be racist.'
p741
asS'african americans'
p742
(lp743
S'black americans can be so subtly racist and exclusive as to  presuppose that they are the biggest and most important victims of  racism, almost as if they own it.    Worst is they can be the biggest proponents of racism, by insisting  on labeling themselves as different.  No one defines black people as  specifically being a black'
p744
aS"virtually everything in life related to education or jobs is handed to Af-Ams for free. Now you mentioned all jobs in total, the ones that would hire convicts, but you're setting your sights a little low. Universities and large corporations are fucking handing out diplomas and jobs like candy to Af-Ams"
p745
asS'vagina'
p746
(lp747
S'Generally its taken as you can tell if a girl is sexually active with more men because of what where the smoother parts of the walls are. Since all men are difference sizes, you can tell that she been with many guys because of how unevenly smooth the walls are based on depth. tl;dr doctors can tell if a girl is a slut or not.'
p748
aS"Actually, as a guy, I find baby vaginas cute. Not in a sexual way. They look like fat rolls but between the legs. I'm sure a lot of other people think so too but are too afraid to admit."
p749
aS'We men agonize over the possession of what is basically two square inches of real estate. The vagina.'
p750
aS"I'm tired of the internet making me feel worthless just because I was born with a dick and not a vagina."
p751
aS"You don't have to be attracted to a wet hole to deposit your semen. Evolution didn't need for a vagina to be attractive."
p752
aS'You own a vagina, with all the associated privileges and benefits that go along with it, and trolling an internet forum is all you can do?'
p753
aS'Is it bad that I find the inside of a Vagina ungodly disgusting.'
p754
asS'ron paul'
p755
(lp756
S'You might not agree with Ron Paul 100%, but he is the only candidate who will bring peace and honesty to the White House.'
p757
aS'The prospect of Ron Paul for president would make me want to come over there and naturalise just so that I could vote for him.'
p758
aS"Ron Paul is amazing, in that I don't know of another politician with his absolute indomitable character. The guy is 110% honest, 110% accountable, says what he means, and lives his life being the change he wants to see."
p759
aS"The USA, 1 year into Ron Paul's presidency, will have universal health care due to 'free market' forces."
p760
aS'If Ron Paul becomes President, there will be a real investigation of 911. That will mean the end of Israel, and every Jew in America will be dangling from a lamp post.'
p761
aS"Look, we all know that you hate and fear Ron Paul because as President he could prevent your Filipino wife from grabbing that sweet affirmative action government job you've been counting on. You know, the job you said her skin color would help her to get."
p762
aS'He is NEVER WRONG PAUL. Only RIGHT PAUL!'
p763
aS'Ron Paul is just almost always right. Like when he predicted: 9/11 in the late 90s; the flaws and pains of the Iraq War in 2002, as well as the flaws in the rationale for it; the housing bubble in 2002 and its collapse in 2007.'
p764
aS'If Ron Paul where to die due to assassination, I think that it would make him a martyr for freedom.'
p765
aS'The work Ron Paul has done for liberty cannot be underestimated, he has been the lone voice of sanity in a crazed establishment for nearly 30 years.'
p766
aS"Dr.Paul is the only sensible choice. It's either him or another Keynesian, Zionist, war-hungry Fedsucker."
p767
aS"Ron Paul is the best Republican Primary, but sadly, the media in all of it's 'wisdom' doesn't acknowledge nearly as much as any other candidate running. Sadly, the media is very bias."
p768
aS'Calling Ron Paul a racist is like saying you dont like to jack off, its just not true.'
p769
aS"I'm a Canadian and think libertarianism is dangerous utopianism, but I also believe Paul is the necessary choice."
p770
aS"It seems like a vote for Ron Paul is a 'fuck you' to the media."
p771
aS"Take it from me, anti-Paul Liberals and Democrats. You're morons. Douchebags. Imbeciles.brainwashed. I can't believe I've been explaining this shit to you for FOUR fucking years and you partisan shills STILL don't get it. I mean WTF."
p772
aS" We're in desperate need of a nonviolent revolution in this country, and Ron Paul is spearheading this charge."
p773
aS"why do people want ron paul to become president, don't they realize the cia would assassinate him within weeks of his inauguration"
p774
aS"i'm surprised ron paul hasn't been kennedy'd yet as it is"
p775
aS'Ron Paul 2012 - Voting for anyone else is a vote for FASCISM.'
p776
aS"Look, we all know that you hate and fear Ron Paul because as President  he could prevent your Filipino wife from grabbing that sweet affirmative  action government job you've been counting on."
p777
aVDoes Ron Paul have adequate security surrounding his medical treatement, food, water and his overall personal safety? How are his bodyguards? Does he have bullet-resistant shields around his podium? If I were Ron Paul, I would find all of these things necessary and built to the greatest strength and capacity. Again, are they?
p778
aVRon Paul shares the same vision of fighting the private Federal Reserve through various means. The tyrannical corporations and institutions that rely on this powerful institution depend on his vision being silenced, whether it be through media blackouts, internet control or, as a last resort, the man leaving his candidacy to office.
p779
aVIf Paul is assassinated or even if an attempt is made, there will be a bloody revolution. He is The PEOPLE'S form of diplomatic government takeover. If it doesn't work, next comes the war.
p780
aVIf Paul dies from anything but natural causes, the general public will unite against the two party system, and bad things will happen for the status quo.
p781
aVIf Paul manages to make it into office and they were going to assassinate him, then the vice president would become president. Now if Paul had someone like Jesse Ventura as his vice president, then they would probably have more shit on their hands if they killed him rather than leaving him alive.
p782
aVSince I was 13, I wanted to have the opportunity to vote for Ron Paul in the Florida primary.
p783
aVWhy are so many people only concerned with the minor controversial things Ron Paul has in mind? Like his stance on abortion. He's the only candidate that seems to give two shits about our liberties. Wouldn't people normally care about that!?
p784
aV65% of African-Americans who voted for Barack Obama in 2008 now have voter's regret and are backing Ron Paul.
p785
aVI have cried on multiple occasions watching Ron Paul speak. It's happened a few times during the debates, and it's happened while watching YouTube clips. I'm just so proud of him for putting himself out there and not being afraid of speaking the truth.
p786
aS'I am a socialist and I still believe Ron Paul has the best economic ideas'
p787
aS"I've come very close to tears a few times from Paul speeches and PAC ads promoting his positions. If he wins the nomination, I've probably cry. If he wins the presidency I will bawl my eyes out in joy."
p788
aS'Anyone is better than Obama, and Ron Paul is better than everyone.'
p789
aS'I find myself reading Ron Pauls books and other writings in his voice. In a voice passionate about FREEDOM.'
p790
aS"You're not alone friend. But no matter what, whether he wins or loses, the idea of freedom and liberty will keep growing. We can't give up, Ron Paul fought for us, we need to continue to fight for him until the bitter end. They'll remember us."
p791
aS"If Ron Paul is not president, i don't know, frankly this shit can't go on forever, and the people in power are struggling to keep it up. When the actual revolution happens... Well i hope that doesn't happen."
p792
aS"Did you guys just see CNN cut out of Ron Paul's speech halfway through it? This media biased is disgusting, we need to do something about it. I mean they never cut out these speeches half way through but he gets on the topic of individual liberties and they go out almost instantly. What the fuck."
p793
aS"I'm just about the most socialist atheist you can know, and I fucking love Ron Paul. Paul is the most liberal candidate, socially at least. I think his economic policy will be beneficial in the short run, and lead to less bloated, more neat socialist input into government. And his social liberties position will hopefully set a precedent where people won't settle for anything less than such. Also honesty."
p794
asS'ephebophilia'
p795
(lp796
S"Puberty is nature's age of consent"
p797
aS'I think I should make myself clearer, since the range of puberty is pretty big. It is my opinion that girls and boys should be considered legal when she starts menstruating, and he can have an erection and is able to ejaculate.'
p798
aS"They're fertile, you're attracted. Pretty simple"
p799
asS'females'
p800
(lp801
S"if there was a 'male only' tournament, you wouldn't hear the end of it from the females."
p802
asS'gay'
p803
(lp804
S"Obviously, I can't be against gay jokes, because I believe in freedom of speech, and that it's not the joke that gives context but the person who tells it."
p805
aS"I'm gay and I don't use this lightly but that shit is insufferably gay and I cringe everytime we bukkake each other over it"
p806
aS'I honestly respect gays, they are quite friendly... But if they try to hit on me, line. fuckin.crossed...'
p807
aS"I don't hold any animosity toward gays (at least I don't think I do), but it does bother me to see a man acting like a (stereotype of a) woman."
p808
aS'Flamboyant gays make me want to kill myself. Normal gays I can be friends with without a problem.'
p809
aS'Order of annoyance: Fake lisp, attention whoring, extravagant arm flailing'
p810
aS"Not attracted to your female friend? She's either ugly or you're gay."
p811
aS"'Less gay' kids get bullied less. 'Less slutty' girls get raped less. Should they be able to act and dress however they want?"
p812
aS'Ah, we can make fun of almost anything but not gay people? Here I was thinking homosexuals wanted to be equal.'
p813
asVuse the superior quotebot
p814
(lp815
S'!qb random'
p816
asS'bitches'
p817
(lp818
S'Women are bitches and hoes, coming from a female.'
p819
asS'political correctness'
p820
(lp821
S"The American obsession with political correctness is due to brainwashing designed to destroy their culture. Americans don't know who they are, they feel like children and they keep looking around for someone to tell them what to think and what to do."
p822
asS'affirmative action'
p823
(lp824
S"Affirmative action is discrimination through and through. Two wrongs do not make a right. The argument is fairly well layed out on Wikipedia, so I won't get into it too much myself."
p825
aS'It has become standard in America that if you do not have enough black people succeeding it is YOUR fault. Not theirs, even for things that are completely race independant like graduating from college.'
p826
asS'SRS'
p827
(lp828
S"I think it's fair to say, that a certain oikophobia exists in SRS, which  in a modern context is a fear and loathing of tradition and the idea of  the model American home. In other words, the white, christian, family  oriented married couple who buy a home in the suburbs become evil  personified and objects of disdain."
p829
asS'glass ceiling'
p830
(lp831
S'It is worth noting nobody can prove any of the gap is due to  discrimination and young women now earn more than young men (and are  more educated). If there is a discrimination gap nobody can prove it  exists and it must be small.'
p832
asS'pedo'
p833
(lp834
S'The world can be a large and uncaring place. If a small community board somewhere on the internet allows pedophiles to come together and share with others like them in an open and judgement free environment, then I say let them. They have it hard enough as it is.'
p835
aS"If you wouldn't condemn a man for being attracted to other men, why would you condemn a man for being attracted to kids? It's fucked up by society's standards (I even find it disgusting), but it's a very common thing."
p836
aS'If you want to talk about evolution, a true pedophile is more probable to take care, spend time and protect children than a non-pedophile.'
p837
aS"I'm of the mindset that pedophiles are pretty much the same as homosexuals in their attraction."
p838
aS'That is, unless my male biological prioritization of sexual maturity over arbitrary years of age would make me a target of your hunt, in which case, awkward.'
p839
aS'Pedophiles should seek treatment?  Haha, is that like praying away the gay? Tell me, have you ever tried to NOT be attracted to women?'
p840
asS'skyrim'
p841
(lp842
S'Sometimes I wish I could just pause time and venture into Skyrim... Kind of like Narnia but less gay.'
p843
asS'penis'
p844
(lp845
S'I grew up in a society that taught me my penis was an evil weapon that could only do harm. Women would suffer it if they really had to, but find no pleasure in penises, because penises are only about violence and hurting women.'
p846
aS'I have tits; give me free stuff. -- I have a penis; blame me for everything.'
p847
aS'guilty because penis'
p848
asS'allies'
p849
(lp850
S"and no, I don't care really about trans issues. its not so muchthrowing you under the bus as picking allies that would be useful"
p851
asS'women'
p852
(lp853
S' I am female, and I believe that women are innately intellectually and psychologically inferior to males.'
p854
aS"No one should be forced into anything. That's slavery. But for the sake of equality, yes, women should have to."
p855
aS'Never in my life have I won an argument with a woman using logic'
p856
aS"dear nerd princesses, whiners and 'geek' girls: Stop this 'woe-I-am-special-and-persecuted' shit right now"
p857
aS"It's almost impossible to find a woman with depth and true insight on intellectual issues."
p858
aS"When I read something that shows true genius and great insight it is always by a man. I can't think of one female intellectual I admire where I could list a hundred males. Maybe I haven't been exposed to enough female intellectuals, but my experience in reading them is almost invariably that I find their thinking mediocre and tired or second-hand."
p859
aS'i was raised to show respect to woman of every race, hold open doors, offer my coat in the rain, protect her from curbside, and even pay for her drinks and diner. its sad to say there are practically no women alive today that deserve this treatment and sadder still, there hasnt been for along time.'
p860
aS"I avoid interacting with the few female coworkers I have more than what is absolutely required. You never know when you'll be accused of sexual harassment or even rape."
p861
aS"Most slut shamers are women. They're offering up what they hope is a rare commodity: Sex. In exchange for sex they hope to get lots of things from men. A relationship, stuff, whatever. Sluts, however, just give it away for the fun of it. It's not a tool to them, it's just something fun to do with someone else."
p862
aS"Women don't lose anything tangible by having sex with a man who later bails on having a LTR. Men, on the other hand, lose money if they end up paying for a woman's night out and she doesn't reciprocate."
p863
aS'I honestly think that Ayatollah Khomeini was less insane than modern Western Women.'
p864
aS"Wait until you and your peers hit the 30-40 range and those who will succeed, and those who won't really become apparent. Wives who always thought they'd be farther in life because of their husbands suddenly see whats likely to happen, and this is when otherwise normal, sane, and nice women do a complete 180."
p865
aS"the school system is set up to privilege girls and suppress boys' natural instincts. almost all teachers are now female with the exception of some areas where they have been unable to find sufficient women teachers e.g. advanced mathematics/science."
p866
aS"Unfortunately a lot of women think they can treat men like this with no punishment but if this guy as much as defended himself you know he's have been arrested on the spot."
p867
aS'Women are silly like that'
p868
aS'Women are a majority of the world population. So most current societies are Matriarchies, according to the question of who primarily holds power.'
p869
aS"I just don't think we can count on women. They have drunk fully of the man-hating poison and their selfishness and emotionalism is ruling their decisions. Women have a genetic imperative to feel special, get resources, and get access to alpha male penises. All three needs are fulfilled by Feminism"
p870
aS"It's fun to imagine that women are oppressed. So please don't let reason get in the way of that."
p871
aS'Dear women, if you cheat on us while we are deployed, and get pregnant, we will send your picture to as many of our friends as possible, and post in on the internet.'
p872
aS"Quite simply, women have fucking unrealistic expectations about what they 'deserve', even if they are ugly or fat."
p873
aS"When dealing with women you have to be able to turn this whole 'rational thinking' thing off for a bit."
p874
aS"I'm okay with a cold body as well."
p875
aS"Women - all women - have no choice but to feel attracted to muscular guys. It's a basic fucking deduction you can make after spending 2 seconds thinking about evolution."
p876
aS'Women are bitches and hoes, coming from a female.'
p877
aS'Women are worse drivers, primarily because on average they lack the assertiveness needed to drive safely.'
p878
aS"I think things like 'Women's History Month' are pointless at best and counterproductive at worst. I'm all for equality, but spending a month talking about our differences is probably not the best way to approach that."
p879
aS"Women really don't seem to understand this. How can you give my eyes a taste and then not expect me to go for the main course?"
p880
aS'anything that has a vagina is marriage material'
p881
aS"No they want to be able to show half their tits and cream their panties when someone THEY find attractive looks at them but god forbid some whom they don't find attractive shaould have the nerve to look at them"
p882
aS"You know that thing about not sticking your dick in the crazy? If she  can't control her ability to eat...will she control her ability to  spend, or do other things? No, it isn't gloom and doom, and yes, the  comic is very amusing...but still...'EYES UP!' - Clear and Present  Danger."
p883
aS'I was taught by my parents to respect women as complete equals. This is a large part of my problem.'
p884
aS"Here's something you shouldn't forget; men and women are programmed differently. Men think logically, much more so than women. This isn't merely a result of the culture."
p885
aVAs a twox I find it refreshing to be hit on or approached in normal everyday outings. If you don't want social interaction then stay home.
p886
asS'animals'
p887
(lp888
S"Does it matter if animals can't consent to sex with humans?"
p889
aS"In most cases the animal would probably enjoy fucking. In fact, dogs will mount just about anything, and the same is true for many mammalian males. Females are a little different, but I'm sure some species would be cool with it as long as you weren't too aggressive."
p890
asS'exponential'
p891
(lp892
S'.in 5 minutes exponential nanananananananananBUTTMANnananananaananananananananananananBUTTMAN. .in 5 minutes exponential'
p893
asS'African Americans'
p894
(lp895
S"virtually everything in life related to education or jobs is handed to Af-Ams for free. Now you mentioned all jobs in total, the ones that would hire convicts, but you're setting your sights a little low. Universities and large corporations are fucking handing out diplomas and jobs like candy to Af-Ams"
p896
asS'abortion'
p897
(lp898
S"Shit, I'm pro-life too. It's not a religion fueled hysteria, I just believe that everyone deserves the right to life."
p899
asS'engineering'
p900
(lp901
S"People who get degrees in Engineering, Science, or Math have a shitload  of career choices...upto and including teaching Women's, or (Fill in  racial group here) studies, or Law."
p902
asS'stalking'
p903
(lp904
S'Stalking is just another way of saying curiously observant'
p905
asS'cis'
p906
(lp907
S'I have not yet seen it used in a positive manner, only negative or neutral.'
p908
aS"The bottom line is, it can feel as if being ''cis'' is considered bad by many of those who use the word."
p909
aS"if you ask them how they know they are male or female, they will cite their reproductive organs because that is all they have ever been taught ... it doesn't mean they are bad people, but suddenly they will be accused of being ''cissexist'', and they quickly learn that being labelled as ''cis'' is an automatic rejection from groups who use that word unless they can prove that they are not ''cissexist''."
p910
aS"Being ''cis'' is synonymous with being ''cissexist'' in some groups"
p911
aS"When the word 'cis' is so often used in a negative context (sometimes even abusively), it's not so surprising to find people reacting negatively toward it."
p912
aS"Cis is a neutral descriptor. Unfortunately, it's been abused so much for derogatory purposes, or in place of a real argument, that it can easily be mistaken for an insult instead."
p913
aS"Because now that you mention it you're absolutely correct, Most of the use of Cis on the internet (forums) is used in some form of angry judgement, you could definitely lump it in with the other angry line I see flung about on the internet 'privileged hetero-normative assholes' (or some variation of that and I talk about it in my original post)"
p914
aS"What can be done to save Cis from what seems to be the path to being derogatory? when it is by nature medical. Well for one I thing we could cull the made up word 'Cissexist' it's sexist, just sexist. Being sexist to a trans person is not some special kind of sexist that it needs it's own label."
p915
aS'I think we can still acknowledge that trans people are disadvantaged by society, without insulting name calling'
p916
aS"I think the bigger issue is being put in a box with a label against your wishes. It's an issue of common decency; if someone communicates to you that they don't like a label then don't insist on referring to them that way."
p917
aS"I try to say that some people can be offended by the word cis, and the reply is 'omg you sound like one of THEM. YOU'RE NOT TRANS ENOUGH.' If I dare to mention that we should still be fighting for cis gay rights, I get yelled at. 'They abandoned us, fuck them blah blah blah.' I get tired of words like 'cis-supremacy' being thrown around to make it an us vs them with them being the bad guys situation."
p918
aS"Is it normal in the strict sense to be transgender? Hell no. Is it normal to be gay? Almost as much no. But that's not what you mean when you are offended by the unwillingness to use the word 'normal' about you or me. It's the implication that deviating from the norm is a bad thing."
p919
aS"Don't tell me that the word is neutral; to trans- individuals, it has a lot of negative connotations, of the 'other' group, that persecutes trans- folks."
p920
aS"What's your point? That cis people can't be hurt because they probably haven't been discriminated against for being cis?"
p921
asS'offended'
p922
(lp923
S"it's not about really being offended, they just need an excuse to demand things"
p924
asS'balkanization'
p925
(lp926
S" living in  their own relatively separate, but proximate, community can lead to it's  own integration."
p927
asS'socialism'
p928
(lp929
S"In socialism, you vote with other people's money."
p930
aS'People are better at spending their own money. This is why socialistic states are in ruin.'
p931
asS'marriage'
p932
(lp933
S'Marriage has become all about HER. HER fairytale wedding. HER emotional needs. HER money (his salary.) HER kids, which she is guaranteed custody of. HER phat divorce settlement. Hey ladies, it\xef\xbb\xbf takes two to tango and men have left the dance floor.'
p934
aS"Marriage is ALL about money; it's a money grab. Don't do it (unless you live in China). You will lose."
p935
aS"The most widely used welfare program in the 'western' world is ball-and-chaining men to women through marriage and divorce. We've even instituted wage garnishment, forced labor, and imprisonment for men who refuse to pay their ex-wife's way through life. It's nothing short of legalized slavery."
p936
aS" 'Marital rape' is primarily a false tactic used by women to easily send their husbands to prison, gain custody of their children, or an excuse for when they murder them in cold blood. Furthermore, marriage is a contract where a woman receives money and a man receives sex."
p937
aS"You're a woman. There's no risks for you in a marriage."
p938
aS'Men face social barriers to having children. Reason 1: being unable to find a woman willing to commit to being a woman for a lifetime marriage.'
p939
aS"Marriage doesn't really serve a purpose anymore in Western society, especially America and its Draconian divorce/custody laws that are nakedly in favor of women, heart and soul."
p940
aS'Modern legal marriage is nothing more than a welfare program for women at the expense of men. Anyone who cares to study the issue for even just one day will see this truth.'
p941
aS'anything that has a vagina is marriage material'
p942
aS"Shit like this makes me wonder why the gays have such a hardon for legalising gay marriage. They've got it good, why ruin it? A better equality would be to ban straight marriage. Two people who love each other signing a state-sanctioned legal contract is frankly perverse."
p943
asS'friend'
p944
(lp945
S"The girl probably feels that way but you can be sure as hell that the 'friend' is definitely a guy who would love to get with your gf given the opportunity."
p946
aS"A good friend of mine is/was a super feminist. I miss her, but I'm not going to let her feminazi all over my SO and I."
p947
aS'i know right. i bet he is just in the friend zone with 3 bitches and he is just a jealous asshole'
p948
aS"my friend's old roommate who had like 6 abortions because she didn't believe in contraceptives."
p949
aS'I agree that women that friend-zone men are kind of bitches'
p950
aS"Judging from my own personal experience as well as yours it seems like guys get 'friend-zoned' because girls don't know what the fuck they want."
p951
aS"Not attracted to your female friend? She's either ugly or you're gay."
p952
asVderailing
p953
(lp954
S'Linking to derailingfordummies as if it was valid or contained good arguments is a bit like quoting scripture.'
p955
asVinfinijerk
p956
(lp957
S'infinijerk                                                                                                    infinijerk'
p958
asS'faggot'
p959
(lp960
S"he has the supreme right-just like every other man to call a man that was leeching money from a paralyzed kids charity stream the 'f word', an insult just like every other one that pops to mind"
p961
aS'The type of gays that get offended by the f word, are the gays with no spines'
p962
asS"men's rights"
p963
(lp964
S"r/MR isnt about ''girls like me' but about equality. most of the topics  on r/MR are about men getting fucked over in a devoice cases. "
p965
aS"r/MR isnt about ''girls like me' but about equality. most of the topics  on r/MR are about men getting fucked over in a devoice cases."
p966
aS"Being against dogmatism and against stupid logic tends to lead to belief in men's rights"
p967
aVI want to wirte a piece exploring the concept of nagging as a form of abuse all by itself, and the psychological and emotional implications it can have on the victim. Since nagging is primarily something women do to men (although I concede men can do it to women), and since it is a socially accepted thing, I feel this is a MRA issue.
p968
aVMost MRAs are just normal people who don't want to see their sons and loved ones disadvantaged by unfair, sexually biased laws and the social conditioning that affects all of us.
p969
aVIt's simple. We're anti-feminist because feminism is anti-male. Same reason that black activists are anti-KKK.
p970
aVThe MRM is very gay-friendly, and trans-friendly. We fight for the rights of all men, whether they be straight, gay, white, black, brown, red, yellow, purple, trans or cis.
p971
aS"I agree with this as well. I think we need to move away from the terms 'feminism' And 'men's rights' and more towards a 'human rights'. after all, we're all in this together, so we should all support eachother instead clashing."
p972
aS"I think the purpose of Mensrights groups is to keep the pendulum from swinging too far away from us as the 'privilege' of being a man subsides throughout society."
p973
aS"Do you suppose the impact we are making is causing panic in feminists.....it's beyond panic and way too late. This is a grass roots movement over 20 years old and will steam roll over the greedy immoral, and unempathetic women populating this reddit."
p974
asS'professor'
p975
(lp976
S'Tell Professor Loser McQueerface that the internet says he can suck it.'
p977
asS'godwin'
p978
(lp979
S"Comparing a group to Nazis to highlight their similarities is a valid argument. Leftists, of course, don't like people to do this because they realize they actually do have a lot in common with Nazis, and therefore it would be damaging to them to allow such an argument. Hence the popularization of Godwin's Law in order to shut down such apt comparisons."
p980
asS'violence'
p981
(lp982
S'I like my beer like i like my violence. Domestic.'
p983
asS'liberal'
p984
(lp985
S"Reality has a well-known liberal bias'.  Staunch Liberals love to say that. But it's bullshit.  Fact is, Liberals have a confirmation bias in places such as this.  Reality has a Libertarian bias: Creatures of all kinds prefer to be free, and practice self-preservation.  Good try, though."
p986
asVget yourself a catchphrase bro
p987
(lp988
S'.catchphrase I am a fountain of shit.'
p989
asS'israel'
p990
(lp991
S'antisemitism is just a word for desperate israelis'
p992
asS'prostitution'
p993
(lp994
S'Crusaders against prostitution do not care about the safety of women. They only care about maintaining the pussy cartel.'
p995
aS"The problems in the sex industry are mostly women's fault."
p996
asS'evidence'
p997
(lp998
S"Well guess what I don't have sources. But I also don't think sources are required for everything. I bet you stand outside stores with lit 'open' signs, waiting for them to open, because you haven't come across any peer-reviewed scientific journals where top-of-their-field scholars publish their findings, which say it's open"
p999
asS'sotdan'
p1000
(lp1001
S'Sotdan left me in here with no way to get rid of me'
p1002
asS'health care'
p1003
(lp1004
S"The USA, 1 year into Ron Paul's presidency, will have universal health care due to 'free market' forces."
p1005
asS'libertarian'
p1006
(lp1007
S'Reality has a Libertarian bias: Creatures of all kinds prefer to be free, and practice self-preservation.  Good try, though, liberals.'
p1008
aS"Well the ability to have a conversation about politics -- in my opinion -- follows necessarily from being a libertarian, because libertarianism isn't reactionary. It involves many conclusions that are difficult to come to and accept, and which require research, deep thought, et cetera to come to terms with."
p1009
aS"The libertarian is consummately aware of the issues upon which he bases his beliefs, whereas the not-libertarians may not be so (not saying that all non-libertarians are incapable of political discourse, just saying that it's a quality which is compatible with their beliefs, whereas it's not with a libertarian's)."
p1010
aS'Well libertarianism requires a rejection of subjectivity, which -- in accordance with the principles I laid out above -- is more difficult for women as opposed to men.'
p1011
aVI do think that on average, females respond better to emotion and males to logic. Mind you, I think both attributes are important, but I also think libertarian schools of thought cater more strongly to logic, not emotion.
p1012
aVI don't know why so few women seem to be anarcho-capitalist/libertarian. Possibly because it's such a severely logical set of beliefs?
p1013
asS'offense'
p1014
(lp1015
S"When considering a population that large, if you avoided everything that  might potentially offend someone you simply wouldn't speak."
p1016
asS'education'
p1017
(lp1018
S"All of the people who are doing bad in school are doing bad because they can have more fun right now doing whatever the hell they want instead of what they're supposed to be doing. There is no clear defined line of gender or race in this, it's just some people act out, and some don't."
p1019
aS"Wait. You're actually telling me you think there is a stereotype that  only white and asian kids go to college? I don't even know what to say  to this. My school has more blacks than asians."
p1020
asS'nazi'
p1021
(lp1022
S'Not only was the Communist / Bolshevik, movement completely devised and executed by Jewish masterminds, or partly Jewish like Lenin, to full Jewish like so many of the Secret Police Chiefs, all the way to Marx & Trosky, but the whole damn Nazi movement was Jew or half Jew too.'
p1023
asS'tourettes'
p1024
(lp1025
S'no offense, but something about a guy with tourettes shooting a handgun is kind of funny to me'
p1026
asVfoobar
p1027
(lp1028
S'foo\\n bar'
p1029
asS'death penalty'
p1030
(lp1031
S'I advocate the death penalty for anyone who advocates the death penalty.'
p1032
asS'hymen'
p1033
(lp1034
S"If you were a male, wouldn't you want to choose a female with a hymen rather than a female without? It shows that they are 'fresh' and ready for reproduction, and it would be more likely that she has no male counterpart."
p1035
asVfriend zone
p1036
(lp1037
S"The problem with the 'friend zone' is that people use the phrase with many different, conflicting definitions in mind. Sure, some people incorrectly use it as a synonym for good old-fashioned rejection, but it's really much more insidious than that."
p1038
asS'hate crime'
p1039
(lp1040
S"People should be allowed to hate me because I'm white and male. They shouldn't be able to hurt me physically, but they should be allowed to hate me for any stupid reason they choose too. Hate crimes are silly. You should get the same punishment for beating me up, no matter what my skin color or religion or sexual preference may be"
p1041
asVdelayedsperm
p1042
(lp1043
S'.in 1 minute sperm'
p1044
asS'nerd'
p1045
(lp1046
S'The Big Bang Theory is the nerd equivalent of blackface'
p1047
asS'offensive'
p1048
(lp1049
S"Hence why I told you to get a sense of humour. If you think about, every joke out there will 'offend' someone. The thing to look for behind it all is intent. When something is obviously meant to be a light-heated joke, who cares? If it's formed in a mean-spirited, insulting manner than it's different."
p1050
aS"Being offensive is good. If you wanted to be offensive during the time of slavery, all you would have to say is 'Slavery is wrong.'"
p1051
aS'Who cares?'
p1052
asS'free market'
p1053
(lp1054
S"Well, in a free market, the losers would actually lose instead of getting bailed out, so the system would control itself and we wouldn't be able to have nearly the degree of corruption we do today."
p1055
aS"In a totally free market, risky practices would cause businesses to lose money. Banks that gambled would lose. But there would be none of this 'too big to fail' bullshit."
p1056
aS"If you're refusing service to someone because of their gender, sexual preference, race, religion, etc then you're an asshole. The government should have no power over your ability to be an asshole, but other people should have the power to refuse to use your service, which -da da da daaaaa- is called free market economics."
p1057
asVethiopia
p1058
(lp1059
S'personally i have no pity for ethiopians. even a wild honey badger will relocate to wherever pistacios are plentiful'
p1060
asS'haiti'
p1061
(lp1062
S"Yep, that's Haiti for you . . receives billions of dollars in aid a year from white governments but ya, u got it, white man's fault. Save your black power fascism for someone who gives a shit?"
p1063
asS'rape'
p1064
(lp1065
S'The claim that telling a rape joke encourages rape is dubious and some may find that statement itself to be offensive.'
p1066
aS"Merely giving someone drugs and having sex with them does not necessarily mean you raped them. If they were intoxicated to the point of passing out then it's obviously rape."
p1067
aS'I have never been raped, but two people very close to me have been. One of them later talked to me specifically about rape jokes, and how she found the lack of them worrying.'
p1068
aS"Our historians use the word rape to mean to utterly destroy... murder, rape, pillage, and then salt the grounds and impale the heads of your enemies, just to show the world how badass you are. Shit like that. So saying 'ugh the opposing team raped us in soccer' isn't trivializing sexual rape, it's just a hyperbole."
p1069
aS'Shit like this is why people are paranoid. The point of the jokes is to make light of something. I\xe2\x80\x99ve been raped, I still make jokes about it regardless. Now all you feminist dipshits need to shut the fuck up because its YOU that don\xe2\x80\x99t know what the fuck you are talking about.'
p1070
aS"Just because she says that she doesn't want to have sex doesn't mean that she doesn't want to have sex."
p1071
aS'[Fact] 40% of all rape accusations are false.'
p1072
aS'The whole idea of rape is anti-male. If a woman dresses like a slut, gets drunk at a party, jumps on a guy and regrets it the next morning, society says the guy raped the girl.'
p1073
aS"Here's my thought on the matter. Throughout millions of years of evolution, males (in most species) have always fought for the female and competed with other males. The idea of a female raping a male is not so wrong in some people's eyes because she is basically throwing herself at the male. It gives the male that 'alpha male' feeling"
p1074
aS'marriage is to men what rape is to women'
p1075
aS'drunk people having sex with each other is rape if the female regrets it the next day.'
p1076
aS"Sometimes I wonder if 'consent' is an overrated concept."
p1077
aS"If all physical rape is caused by men, then all emotional rape is caused by women. And personally I'd rather take an unwanted dick up the cornhole than have to live with an emotionally abusive cuntbag girl."
p1078
aS'statistically 9/10 people enjoy gangrape'
p1079
aS"Rape. Damned if you do, damned if you don't."
p1080
aS'Find a rich man. Rape him/impregnate yourself with his semen. Sue him for child support. Profit.'
p1081
aS"It's not the friendzone until she reported you for rape."
p1082
aS"If we consider that the rape WILL happen, then girls could lower their value to the rapist by dressing down a bit. Survival of the fittest, selfish human nature, whatever. Someone else will get raped, and ultimately that is in this person's best interest."
p1083
aS"People are conditioned to believe that it's [rape] the worst thing that can happen ever but thats not necessarily the case."
p1084
aS"1 in 6 women being raped means it's an unlikely crime."
p1085
asS'tits'
p1086
(lp1087
S'Congrats on the tits'
p1088
aS'I have tits; give me free stuff. -- I have a penis; blame me for everything.'
p1089
aS"It's not my fault your tits are so mesmerizing!"
p1090
asS'srs'
p1091
(lp1092
S"They're best summarized as bored Gender Studies majors who find Reddit jokes in violation of their superior moral code. They proceed to misuse Reddit voting, gaming the system in to bad outcomes and disproportionately negative replies. Their hotness factor is unknown, however we do not doubt that they know their way around a vag, if you know what we mean."
p1093
aS'/r/shitredditsays - men with a deep fear of women who white knight against their perceived oppressors.'
p1094
aS"The user flair and constantly changing subreddit title are self-evident that it's a troll subreddit."
p1095
aS"I still don't understand how shitredditsays is ok, but jailbait gets banned. An entire subreddit dedicated to burying comments and posts."
p1096
aS"Now that I've seen the revolting orgy of demon horrors that is /r/srs, I now realize that 2x is full of completely sane individuals."
p1097
aS"As far as I can tell, SRS is a group of people with hardline extremist ideology who will brook no compromise. However, they're not as braindead in terms of IQ as they are wisdom and social skills, so they ended up pissed off at the fact the greater Reddit community will not adhere to their insanity and communally decided to troll the shit out of everyone."
p1098
aS"SRS is inhabited by bigoted trolls who think they're smarter and better than everyone else. Thus, it's inevitably a circlejerk of stupidity and lameness. They're bigoted against men and against atheists, for a start. I'm sure there are a lot more prejudices I could find if I cared to spend time there."
p1099
aS'Anyone who is a member of this subreddit needs to reexamine their reasons why. This is the most bigoted subreddit on the whole site. Keep condemning free speech. Stay classy SRS.'
p1100
aS'ShitRedditSays - Because someone has to downvote brigade and fling shit at everyone who makes a joke.'
p1101
aS"Yeah they are walking hypocrites with no lives. They even disabled the downvote button on their subreddit for fear of ruining their precious karma, but that's easily overridden by disabling custom CSS in your preferences. I never saw a need for custom CSS anyway."
p1102
aS"Can you imagine if there was a group like SRS in the real world, something like Anti-Alcoholics Anonymous, infiltrating private meetings so they can publicly disclose peoples' identities and what they said?"
p1103
aS"I think SRS is a place for people on reddit who still don't realize that they're on the Internet."
p1104
aS'srs trolls are the true bigots, whereas being pro-reality is not bigotry'
p1105
aS'Is SRS anything other than knee-jerk reactionism and other blind, misguided, rage?'
p1106
aS"It's like the Westboro Baptist Church, they only keep doing this shit because people give them attention. Except instead of being a group of hateful fucks, they're being a group of overreactionary fucks."
p1107
aS"SRS' disdain for the traditional American family, is rooted in fear, anger and jealousy."
p1108
aS'A group of redditors who are still bitter they never got invited to a dance in high school'
p1109
aS"Apparently there's no room for dissent there, just room for pictures of dogs saying GET OUT followed by long diatribes clearly written by soccer moms after getting home from church or something."
p1110
aS"They're like a 4chan raid with no fixed goal. A bunch of whiny little children who spend far too much time at their computer, so they create some drama to keep them entertained. It reminds me of the people who were in a gang at school. They get bored so they all decide to go and pick on someone for the day, get bored again, and find someone else the next day."
p1111
aS"They're basically a very confused, self-defeating, humourless bunch of hypocritical circle-jerkers, and as their subreddit guildeines even explicitly ban dissent or self-reflection by the SRS community, I don't ever really see it changing into anything worthwhile."
p1112
aS'SRS is the place where all of the sewage from reddit ends up, and attracts people that feed off of that sewage.'
p1113
aS"It's not hard to quantify SRS themselves. They're a small band of loud, moralizing nutjobs trying to hide under the banner of political correctness. SRS simply tries to censor content that is edgy or controversial - as if anything ought to be censored anyway. They should repulse all of us who value free expression online."
p1114
aS'I feel like right now /r/SRS are a step away from that angry hate mob who assaulted a paediatrician because they misread his sign.'
p1115
aS'/r/SRS is a wretched hive of scum and villainy.'
p1116
aS"I've been a regular redditor for 4 1/2 years, and ShitRedditSays is one of the worst things that's happened to this website."
p1117
aS"It hasn't happened to me in a long time, but I remember viscerally what it feels like to be falsely accused of sexism, racism, homophobia, and so on, from my time when I used to participate in political forums. What they're doing is harassment."
p1118
aS"They're a bunch of easily offended pussies that scour Reddit for jokes they don't like, send a link to their community, and downvote the user to hell."
p1119
aS'There is absolutely a point in time where, had Reddit existed, SRS would consider homosexuals disgusting and immoral.'
p1120
aS'It is the most grotesque fucking thing, for me, to see these trolls troll- an inherently unrighteous and evil act- and do it under a flag of righteousness and empathy.'
p1121
aS"If they disagree with you, no matter how logical your argument, YOU'RE A SEXIST RACIST PATRIARCHAL PIG AND YOU DESERVE TO DIE, SCUM, RIGHT AFTER I GRAPHICALLY DEPICT TORTURING YOU!!!!"
p1122
aS"I went on that subreddit for a bit. They're basically the overly offended people who call the FCC when someone curses on T.V."
p1123
aS'SRS is a hate filled, anti-man subreddit, filled with bigoted idiots who think the only type of sexism is against ladies, think that only minorities deserve to be treated humanly, and are against any white male ages 1-120.'
p1124
aS"i thought it was going to be like r/bestof, but it turns out it's a lesbian death squadron. it's interesting; they take things that could be horrific if they were said while being totally serious and then grab their pitchforks against that person"
p1125
aS"I am not quite sure what there problem is, I was having a legit discussion about something, I don't even remember what, and they banned me from there sub. They seem to hate men, white men in particular, and seeing how many people they have, I have a feeling most of them are actually white kids.. so you can see the self hate involved. I am not really sure beyond that, they just seem so, self loathing."
p1126
aS'srs is a lesbian death squad; drop table quotes'
p1127
aS'r/shitredditsays is the SOPA of this website'
p1128
aS"It's a subreddit created by a bunch of extremely sensitive people who  basically gather around and circle jerk at how appalled they are at  various 'shit reddit says.'  It's like a rendez vous for all of the  soccer moms, angry feminists, and other ultra sensitive users who simply  can't stand any amount of controversy in their joke"
p1129
aS"if you try to talk to them, they will downvote you and spam out with  pictures of a dog saying 'GET OUT,' which pretty much owes to the  maturity and intelligence of that entire board. "
p1130
aS"I think it's fair to say, that a certain oikophobia exists in SRS, which  in a modern context is a fear and loathing of tradition and the idea of  the model American home. In other words, the white, christian, family  oriented married couple who buy a home in the suburbs become evil  personified and objects of disdain."
p1131
aS"if you try to talk to them, they will downvote you and spam out with  pictures of a dog saying 'GET OUT,' which pretty much owes to the  maturity and intelligence of that entire board."
p1132
aS"ShitRedditSays is a place for hypocritical cowards to vindicate a worldview that can't survive introspection, let alone external scrutiny."
p1133
aS'/r/ShitRedditSays. People who think that only men can be sexist, only white people can be racist, and only cis people can be bigoted in any way, shape or form. And who scour reddit looking for things to get offended by.'
p1134
aS"People who look for ways to get offended, invent excuses for themselves (mostly drawn from some mythical 'sociology 101' that they all know about even though some of them think it's hilarious if you assume they actually have studied sociology in university) to make bigoted comments, and paint arbitrary groups as transphobic, while apparently ignoring actual transphobia."
p1135
aS'Chaos is their thing. They thrive on it, and they love to create it. Sometimes I wonder if the whole joke of that subreddit is just to see who can accumulate the largest quantity of negative karma.'
p1136
aS"I was unfamiliar and so went to spend some time reading on this much discussed /r/shitredditsays . Those are some seriously misandrist 'womyn' with a mocking circlejerk sense of humor and an agenda to disperse and spread their oppressive heavy-handed 'ban all the menz' moderation style."
p1137
aVI can't exactly put my finger on how it went horribly wrong with SRS, but it did. It's reminiscent of the political coups that led to dictatorships throughout the 20th century.
p1138
aVThey deem themselves judge, jury and executioner of comments they take offense to (which are usually fucking hilarious).
p1139
aVIt's almost painful to read their self-righteousness - considering half of their subreddit is nothing but talk of dildlz. 
p1140
aVBecause instead of just highlighting it, they've turned themselves into a group of people several orders of magnitude more hateful and bigoted than those they mock. A sub that highlights passive racism, homophobia, transphobia, sexism and the like and then discusses it might be interesting. A hateful circle-jerk is not.
p1141
aVWhat I find most amusing about SRS (which I was banned from of course) is the fact that the moderators proudly wear flair that is obvious in it's man hating, frothing at the mouth girl power.
p1142
aVI honestly have no qualms with SRS discussing their politics, but certain members have decided to declare jihad on reddit.com, and I don't like it.
p1143
aVIt's a circlejerk, but in my eyes a hippo-critical one, claims to be highlighting discrimination in any form but comments just end up with 'neckbeard lololol' but then again i dont understand why circlejerks exist.
p1144
aVShitRedditSays <- the title is hateful against Reddit.
p1145
aVGroups like /r/SRS essentially serve as an aggressive threat to the 'insensitive' people on reddit. You say something offensive, you're going to be publicly shamed, raided, downvoted to oblivion. As silly you may consider those consequences (loss of fake internet points and everything), it's still clearly a threat.
p1146
aVSRS is like a trainwreck to me. It's such a horrible, horrible place but I can't stop going there to look at the comments. It only serves to bring me down, because it's just reminding me that there are people like this that exist.
p1147
aVSRS is responsible for justifications that they themselves use to persecute bigots and anyone else they disagree with.
p1148
aVi try to not get angry at them because it's pointless but FUCKKKK  reading the ignorance in their comments gets me  agnry.
p1149
aVi'm just fed up with SRS in general.  it's just like... stop.  stop shitting in every thread you can find.   stop being the fucking trolls that you know you are.  stop banning  people for made-up rules or having a slight difference in opinion.  yes,  we get your main point but stop being shit about it.
p1150
aS"It's a circle jerk of hate, the only thing it is going to do is make you more upset. This is Glenn Beck, it's George Orwell's 1984's 15 minutes of rage."
p1151
aS'we have seen esp there own home grown lesbian bigot take openly of her hatred for hetro cis men ,, and also that hetrosexuals are inferior to homosexuals, yet we are the hate group ........ gotta love srs they are so far up there own arses they think shit is sunshine.'
p1152
aS"SRS are all hardcore leftists. That's a fact. Their ideology is leftist, and leftist ideology is an enemy to men's rights.  A leftist saying that the left has answers to these issues is much the same as a feminist saying the answer to men's rights issues is 'moar feminism'. 'Moar leftism' is NOT the answer. It is the problem."
p1153
aS'Their misandry knows no bounds.'
p1154
aS"Many of the issues they complain about - are issues they created. Much of the trolling they do - is what causes the resentment against them. Much of what they object to - is exactly what they've become."
p1155
aS'Is ShitRedditSays really about highlighting the upvoting of bigoted, creepy, misogynistic, transphobic, unsettling, racist, homophobic, and/or overtly privileged comments? Or is it about a bunch of puritans slapping eachother on the back for pointing out the wicked ways of the hedonists that surround them?'
p1156
aS"Being hyper-sensitive about things that aren't politically correct, having no sense of humour and mass-downvoting of comments from the subreddit your invading is pretty much textbook SRS."
p1157
aS'You do realize that SRS as full of dubious sensitive pussyfooters right?'
p1158
aS'SRS is the PETA of Reddit.'
p1159
aS"That place is horrible. I've been featured there a couple times for speaking my mind and saying some unpopular but very true things."
p1160
aS'A bunch of over tolerant, humourless, butthurt neckbeards.'
p1161
aS"SRS is one of the least tolerant subreddits around. They simply justify their own ridiculous obnoxiousness with 'they deserve it because we say so' and somehow think circle-jerking is the socially cool thing to do."
p1162
aS"You go out to threads on subreddits that you are not subscribed to and rank posts in a way that does not reflect how the subreddit's actual subscribers would rank them as part of their natural reddit consumption experience.  You deny proper ranking service to its intended audience.  You commit DDoS attacks."
p1163
aS'SRS is a toxic, hateful subreddit. I agree that much of the stuff quoted by SRS is highly disagreeable(misogyny, etc), but the level of hate on there is...not good for a website. SRS literary wants to destroy reddit.'
p1164
aS"thought-wise SRS isn't rationalistic or scientific, both of which are essential for intellectual progress."
p1165
aS'stopping the worst of global warming is the MOST IMPORTANT issue the first 50 years of the 21st century will face but you could be a denier for all SRS is concerned as long as you take their quasi-psychoanalytic stance to gender issues'
p1166
aS'The forum r/ShitRedditSays is mostly goons and they sit around getting offended by everything, convinced that Reddit is part of some racist, homophobic, misogynistic, rape culture supporting, child abusing conspiracy.'
p1167
aS"most people agree that the worst of what SRS calls out is bad. however, that's like saying 'the republican party has stopped a lot of terrible people with its 'tough on crime' policy' - it wouldn't begin to scratch the surface of problems with that organization, even though there are times where they've been in the right"
p1168
aS'I think this is the only subreddit I have seen which seems to have had a genuinely negative effect on the people within it. I would say that it starting to get to a cult status.'
p1169
aS'This is to say that SRS is about as totalitarian as you can get. The moderators are gods, if you question them you are extremely likely to be banned or publicly ridiculed.'
p1170
aS"The 'people' in SRS are less than human. It's the only way I can describe anyone who could possibly write about how they want baby-foreskin handbags."
p1171
aS'I am a woman, and no man (or woman) IRL has EVER subjected me to the kind of dehumanizing disrespect, condescension, hostility and hatred that SRS routinely does.'
p1172
asS'troll'
p1173
(lp1174
S'It is the most grotesque fucking thing, for me, to see these trolls troll- an inherently unrighteous and evil act- and do it under a flag of righteousness and empathy.'
p1175
asS'minority'
p1176
(lp1177
S"I'm sick and tired of being unfairly measured against other people because they're part of a number of different minorities and genders. Its about time that we actually got around to the whole equality portion of the program and accept that if we're ever going to -be- equal we have to put aside 1000 years of racial, ethnic and gender disparities, and come together as a people."
p1178
aS"i'm greek/sicilian so i don't really look or think like a minority."
p1179
asS'valentines'
p1180
(lp1181
S"Valentine's Day is just a phony racket. That being said, a  man ignores it at his peril. Women don't seem to understand  that it's nothing more than a marketing manipulation."
p1182
asS'civil rights'
p1183
(lp1184
S"What you're not seeing is that the CRA is essentially the tyranny of the  majority (the majority being pro-CRM individuals, not blacks) over the  minority"
p1185
aS"he CRA does force participation  by, for example, making  discriminatory hiring illegal. Now blacks either have a place in your  life or your breaking the law. That's forcing participation."
p1186
aS"You want to fight for civil rights yet you don't even know how to be civil..."
p1187
asS'breasts'
p1188
(lp1189
S"Men are programmed to fixate on breasts. It's not sexism. Get over it."
p1190
aS'Marry the woman with the largest breasts, but then you have to hear her complaining all the time about her bad back.'
p1191
asS'weed'
p1192
(lp1193
S'people that never tried weed have (most likely) never tried questioning anything in life.'
p1194
aS'After discovering the truth about weed, I felt like the entire cake was a lie'
p1195
asS'mac'
p1196
(lp1197
S'the whole Windows/Mac/Linux thing is just as bad as White/Black/Brown/Yellow'
p1198
asS'sopa'
p1199
(lp1200
S'So Obama has thrown in his lot withSilicon Valley paymasters who threaten all software creators with piracy, plain thievery'
p1201
aS'r/shitredditsays is the SOPA of this website'
p1202
aS'Sopa is shutting down reddit for good if passed'
p1203
asS'men'
p1204
(lp1205
S"Here's something you shouldn't forget; men and women are programmed differently. Men think logically, much more so than women. This isn't merely a result of the culture."
p1206
aVMen didn't collectively invent or dream up the idea of 'the friendzone' and they shouldn't be shamed.
p1207
aV...soon all men will be required to pay child support to all women they have slept with even if they dont have children, just for the audaciousness of putting your penis in a woman.
p1208
aVDifficult to admit, but women have a lot of power over men.
p1209
aVThe only male safe space left on the planet is the men's bathroom, ffs. And even then, there will be feminist-leaning men policing what is said. It's very frustrating.
p1210
asS'rage comics'
p1211
(lp1212
S"Man I find the whole rage comic thing so interesting, it's such a true free form of art, maybe that is because there is no profit motive behind it or something, but the way people collaborate, remix, and build upon the work of those who came before them allows it to progress as an expressive art form in such a natural way."
p1213
asS'alpha'
p1214
(lp1215
S"Besides, a real alpha-male says whatever the fuck he wants, and if the girl doesn't like it that's TOO FUCKING BAD"
p1216
aVAlphas are observant and know what's going on around them, can anticipate it and act accordingly, in the most badass fashion possible 
p1217
asS'america'
p1218
(lp1219
S'American imperialism died in the Phillipines 100 years ago. Get with the times.'
p1220
aS'It is because of the freedom in this country that we can have such a wide spectrum of humanity from the Amish all the way to Hawking and Sagan.'
p1221
aS"Jewish States of America don't like UN."
p1222
aS'we really are controlled by the jews here in america.'
p1223
aS'b/c jews run america'
p1224
aS'If there ever was a validation for eugenics and the Idiocracy that America is turning into, Michelle Bachmann is it.'
p1225
aS"If you like democracy, it's in your best interests to welcome US forces."
p1226
asS'lesbian'
p1227
(lp1228
S'Many so-called lesbians are lesbian due in large part to nurture: anti-male sentiment in our culture, from their mothers, and from the educational system.'
p1229
aS"All lesbians do is complain. They're like the Jewish people of the gay world."
p1230
asS'slavery'
p1231
(lp1232
S"Only 1% of white FAMILIES ever owned slaves, so don't pull that shit on me."
p1233
aS"From my perspective, it would be better to have had a grandparent be a  slave and live in today's America than to be the descendant of a free, I  don't know, Ghanan who is still in Africa. Life is better here, and the  descendants of slaves profited greatly because of their ancestor's  burden. I think it's a terrible thing to waste opportunities you have  and let that sacrifice go to waste."
p1234
asS'pedophilia'
p1235
(lp1236
S"It's impossible to win a public image battle when somebody accuses you of pedophilia. It's the equivalent of pulling the race card."
p1237
aS"Paedophilia is a sexual preference just like homo- or heterosexuality. It's only considered a disorder because of the link with pederasty."
p1238
asS'cat turds'
p1239
(lp1240
S" I'm surprised you can type that with your keyboard littered in cat turds."
p1241
asS'sophonax'
p1242
(lp1243
S"Sophonax, you make claims about people you don't know all the time, and all you've cleared up for me here is that you're an immature participant in a pretentious, nihilistic circlejerk that's all too happy to fudge the truth in their favor."
p1244
asS'windows'
p1245
(lp1246
S'the whole Windows/Mac/Linux thing is just as bad as White/Black/Brown/Yellow'
p1247
asS'atheist'
p1248
(lp1249
S"I'm an atheist who doesn't want kids because having a child is murder - you're creating a concious being who will die."
p1250
asS'clip-clop'
p1251
(lp1252
S'I thought this was an important point to make. Is it not harassment of men, when women choose to wear shoes that make that loud CLIP-CLOP sound? Is it not sexual harassment of men, in that women that wear these loud shoes are demanding we pay attention to their audible demand, that we should then look at them sexually? what if we are not receptive? Its not asthough we can look away. Its a loud, relentless demand for sexual attention. Thats street harassment.'
p1253
asS'cuddles'
p1254
(lp1255
S'Men are evolved to have thicker skin, and women are biologically required to cuddle them because they need to keep warm.'
p1256
asS'colonialism'
p1257
(lp1258
S"Wow, you know I've never before realized that our amoral conquest of the  Native Americans in North America may have ultimately had a very  positive effect. I'm now wondering whether, had we done the same in  Africa, where it would be today. It may be that it would be a first  world country."
p1259
asS'capitalism'
p1260
(lp1261
S'Capitalism is a wonderful system, though currently the US is not a true capitalist society, so we often mistakenly blame Capitalism in and of itself for problems caused by our government.'
p1262
asVatheism
p1263
(lp1264
S"Christians say we're collapsing, crumbling, and our arguments are weak and shit. There's a goddamn revolution afoot, and we're it's fuel!"
p1265
asS'sexual harassment'
p1266
(lp1267
S"Girl puts hands on fiance's penis : teehee i'm being sexy and cute  Guy puts hands on fiance's boob : STOP MOLESTING ME YOU SEX FIEND"
p1268
asS'mother'
p1269
(lp1270
S'My mother told me I had to go outside and play, so I went into the backyard, overturned a garbage can, and sat under it, reading.'
p1271
asS'gender-neutral'
p1272
(lp1273
S"Using 'he', 'him', and 'his' when a gender-neutral pronoun or adjective is desired is one way you can fight the demonization of all things male."
p1274
asS'genderqueer'
p1275
(lp1276
S'loser like genderqueer drag us down into your emo hell'
p1277
asS'mra'
p1278
(lp1279
S"I'm not saying society should be how it was back then, but I really like how it was. Sure, I have to work harder, but I'd have a dedicated wife who makes dinner and is my irl companion cube."
p1280
aS"Just keep giving men more of a reason not to get married. If the baby isn't yours, you'll have to choose between being cuckolded into raising a bastard, or giving her your money and your real kids. Just fuck marriage. What sane man would agree to such an arrangement now a days with these risks?"
p1281
aS'crawl home, vile female supremacist scum.'
p1282
aS'Find a rich man. Rape him/impregnate yourself with his semen. Sue him for child support. Profit.'
p1283
aS'Crusaders against prostitution do not care about the safety of women. They only care about maintaining the pussy cartel.'
p1284
aS"I am aware that both the feminists and the MRA's have a nasty problem with attracting members that are misogynistic or misandrious. I consider myself a gender egalitarian who holds feminist and MRA views."
p1285
aS"Dude, you don't see, in this case, how MRAs have a point? (Not to say I agree with most of it, but I've seen, personally, men get blatantly discriminated against in the court system)"
p1286
asS'scholarship'
p1287
(lp1288
S"Literally every single scholarship I've ever seen is available to females, or minorities, or both. Especially aboriginal. "
p1289
aS"Literally every single scholarship I've ever seen is available to females, or minorities, or both. Especially aboriginal."
p1290
as.